ARM GAS  /tmp/ccrRyNXj.s 			page 1


   1              		.cpu cortex-m33
   2              		.arch armv8-m.main
   3              		.fpu fpv4-sp-d16
   4              		.arch_extension dsp
   5              		.eabi_attribute 27, 1
   6              		.eabi_attribute 28, 1
   7              		.eabi_attribute 20, 1
   8              		.eabi_attribute 21, 1
   9              		.eabi_attribute 23, 3
  10              		.eabi_attribute 24, 1
  11              		.eabi_attribute 25, 1
  12              		.eabi_attribute 26, 1
  13              		.eabi_attribute 30, 1
  14              		.eabi_attribute 34, 1
  15              		.eabi_attribute 18, 4
  16              		.file	"usbd_conf.c"
  17              		.text
  18              	.Ltext0:
  19              		.cfi_sections	.debug_frame
  20              		.file 1 "USB_Device/Target/usbd_conf.c"
  21              		.section	.text.USBD_Get_USB_Status,"ax",%progbits
  22              		.align	1
  23              		.syntax unified
  24              		.thumb
  25              		.thumb_func
  27              	USBD_Get_USB_Status:
  28              	.LVL0:
  29              	.LFB187:
   1:USB_Device/Target/usbd_conf.c **** /* USER CODE BEGIN Header */
   2:USB_Device/Target/usbd_conf.c **** /**
   3:USB_Device/Target/usbd_conf.c ****   ******************************************************************************
   4:USB_Device/Target/usbd_conf.c ****   * @file           : Target/usbd_conf.c
   5:USB_Device/Target/usbd_conf.c ****   * @version        : v3.0_Cube
   6:USB_Device/Target/usbd_conf.c ****   * @brief          : This file implements the board support package for the USB device library
   7:USB_Device/Target/usbd_conf.c ****   ******************************************************************************
   8:USB_Device/Target/usbd_conf.c ****   * @attention
   9:USB_Device/Target/usbd_conf.c ****   *
  10:USB_Device/Target/usbd_conf.c ****   * Copyright (c) 2023 STMicroelectronics.
  11:USB_Device/Target/usbd_conf.c ****   * All rights reserved.
  12:USB_Device/Target/usbd_conf.c ****   *
  13:USB_Device/Target/usbd_conf.c ****   * This software is licensed under terms that can be found in the LICENSE file
  14:USB_Device/Target/usbd_conf.c ****   * in the root directory of this software component.
  15:USB_Device/Target/usbd_conf.c ****   * If no LICENSE file comes with this software, it is provided AS-IS.
  16:USB_Device/Target/usbd_conf.c ****   *
  17:USB_Device/Target/usbd_conf.c ****   ******************************************************************************
  18:USB_Device/Target/usbd_conf.c ****   */
  19:USB_Device/Target/usbd_conf.c **** /* USER CODE END Header */
  20:USB_Device/Target/usbd_conf.c **** 
  21:USB_Device/Target/usbd_conf.c **** /* Includes ------------------------------------------------------------------*/
  22:USB_Device/Target/usbd_conf.c **** #include "stm32l5xx.h"
  23:USB_Device/Target/usbd_conf.c **** #include "stm32l5xx_hal.h"
  24:USB_Device/Target/usbd_conf.c **** #include "usbd_def.h"
  25:USB_Device/Target/usbd_conf.c **** #include "usbd_core.h"
  26:USB_Device/Target/usbd_conf.c **** 
  27:USB_Device/Target/usbd_conf.c **** #include "usbd_hid.h"
  28:USB_Device/Target/usbd_conf.c **** 
  29:USB_Device/Target/usbd_conf.c **** /* USER CODE BEGIN Includes */
ARM GAS  /tmp/ccrRyNXj.s 			page 2


  30:USB_Device/Target/usbd_conf.c **** 
  31:USB_Device/Target/usbd_conf.c **** /* USER CODE END Includes */
  32:USB_Device/Target/usbd_conf.c **** 
  33:USB_Device/Target/usbd_conf.c **** /* Private typedef -----------------------------------------------------------*/
  34:USB_Device/Target/usbd_conf.c **** /* Private define ------------------------------------------------------------*/
  35:USB_Device/Target/usbd_conf.c **** /* Private macro -------------------------------------------------------------*/
  36:USB_Device/Target/usbd_conf.c **** 
  37:USB_Device/Target/usbd_conf.c **** /* Private variables ---------------------------------------------------------*/
  38:USB_Device/Target/usbd_conf.c **** /* USER CODE BEGIN PV */
  39:USB_Device/Target/usbd_conf.c **** 
  40:USB_Device/Target/usbd_conf.c **** /* USER CODE END PV */
  41:USB_Device/Target/usbd_conf.c **** 
  42:USB_Device/Target/usbd_conf.c **** PCD_HandleTypeDef hpcd_USB_FS;
  43:USB_Device/Target/usbd_conf.c **** void Error_Handler(void);
  44:USB_Device/Target/usbd_conf.c **** 
  45:USB_Device/Target/usbd_conf.c **** /* USER CODE BEGIN 0 */
  46:USB_Device/Target/usbd_conf.c **** 
  47:USB_Device/Target/usbd_conf.c **** /* USER CODE END 0 */
  48:USB_Device/Target/usbd_conf.c **** 
  49:USB_Device/Target/usbd_conf.c **** /* Exported function prototypes ----------------------------------------------*/
  50:USB_Device/Target/usbd_conf.c **** 
  51:USB_Device/Target/usbd_conf.c **** /* USER CODE BEGIN PFP */
  52:USB_Device/Target/usbd_conf.c **** /* Private function prototypes -----------------------------------------------*/
  53:USB_Device/Target/usbd_conf.c **** 
  54:USB_Device/Target/usbd_conf.c **** /* USER CODE END PFP */
  55:USB_Device/Target/usbd_conf.c **** 
  56:USB_Device/Target/usbd_conf.c **** /* Private functions ---------------------------------------------------------*/
  57:USB_Device/Target/usbd_conf.c **** static USBD_StatusTypeDef USBD_Get_USB_Status(HAL_StatusTypeDef hal_status);
  58:USB_Device/Target/usbd_conf.c **** /* USER CODE BEGIN 1 */
  59:USB_Device/Target/usbd_conf.c **** static void SystemClockConfig_Resume(void);
  60:USB_Device/Target/usbd_conf.c **** 
  61:USB_Device/Target/usbd_conf.c **** /* USER CODE END 1 */
  62:USB_Device/Target/usbd_conf.c **** extern void SystemClock_Config(void);
  63:USB_Device/Target/usbd_conf.c **** 
  64:USB_Device/Target/usbd_conf.c **** /*******************************************************************************
  65:USB_Device/Target/usbd_conf.c ****                        LL Driver Callbacks (PCD -> USB Device Library)
  66:USB_Device/Target/usbd_conf.c **** *******************************************************************************/
  67:USB_Device/Target/usbd_conf.c **** /* MSP Init */
  68:USB_Device/Target/usbd_conf.c **** 
  69:USB_Device/Target/usbd_conf.c **** void HAL_PCD_MspInit(PCD_HandleTypeDef* pcdHandle)
  70:USB_Device/Target/usbd_conf.c **** {
  71:USB_Device/Target/usbd_conf.c ****   GPIO_InitTypeDef GPIO_InitStruct = {0};
  72:USB_Device/Target/usbd_conf.c ****   RCC_PeriphCLKInitTypeDef PeriphClkInit = {0};
  73:USB_Device/Target/usbd_conf.c ****   if(pcdHandle->Instance==USB)
  74:USB_Device/Target/usbd_conf.c ****   {
  75:USB_Device/Target/usbd_conf.c ****   /* USER CODE BEGIN USB_MspInit 0 */
  76:USB_Device/Target/usbd_conf.c **** 
  77:USB_Device/Target/usbd_conf.c ****   /* USER CODE END USB_MspInit 0 */
  78:USB_Device/Target/usbd_conf.c **** 
  79:USB_Device/Target/usbd_conf.c ****   /** Initializes the peripherals clock
  80:USB_Device/Target/usbd_conf.c ****   */
  81:USB_Device/Target/usbd_conf.c ****     PeriphClkInit.PeriphClockSelection = RCC_PERIPHCLK_USB;
  82:USB_Device/Target/usbd_conf.c ****     PeriphClkInit.UsbClockSelection = RCC_USBCLKSOURCE_PLLSAI1;
  83:USB_Device/Target/usbd_conf.c ****     PeriphClkInit.PLLSAI1.PLLSAI1Source = RCC_PLLSAI1SOURCE_HSE;
  84:USB_Device/Target/usbd_conf.c ****     PeriphClkInit.PLLSAI1.PLLSAI1M = 4;
  85:USB_Device/Target/usbd_conf.c ****     PeriphClkInit.PLLSAI1.PLLSAI1N = 12;
  86:USB_Device/Target/usbd_conf.c ****     PeriphClkInit.PLLSAI1.PLLSAI1P = RCC_PLLP_DIV7;
ARM GAS  /tmp/ccrRyNXj.s 			page 3


  87:USB_Device/Target/usbd_conf.c ****     PeriphClkInit.PLLSAI1.PLLSAI1Q = RCC_PLLQ_DIV2;
  88:USB_Device/Target/usbd_conf.c ****     PeriphClkInit.PLLSAI1.PLLSAI1R = RCC_PLLR_DIV2;
  89:USB_Device/Target/usbd_conf.c ****     PeriphClkInit.PLLSAI1.PLLSAI1ClockOut = RCC_PLLSAI1_48M2CLK;
  90:USB_Device/Target/usbd_conf.c ****     if (HAL_RCCEx_PeriphCLKConfig(&PeriphClkInit) != HAL_OK)
  91:USB_Device/Target/usbd_conf.c ****     {
  92:USB_Device/Target/usbd_conf.c ****       Error_Handler();
  93:USB_Device/Target/usbd_conf.c ****     }
  94:USB_Device/Target/usbd_conf.c **** 
  95:USB_Device/Target/usbd_conf.c ****     __HAL_RCC_GPIOA_CLK_ENABLE();
  96:USB_Device/Target/usbd_conf.c ****     /**USB GPIO Configuration
  97:USB_Device/Target/usbd_conf.c ****     PA11     ------> USB_DM
  98:USB_Device/Target/usbd_conf.c ****     PA12     ------> USB_DP
  99:USB_Device/Target/usbd_conf.c ****     */
 100:USB_Device/Target/usbd_conf.c ****     GPIO_InitStruct.Pin = GPIO_PIN_11|GPIO_PIN_12;
 101:USB_Device/Target/usbd_conf.c ****     GPIO_InitStruct.Mode = GPIO_MODE_AF_PP;
 102:USB_Device/Target/usbd_conf.c ****     GPIO_InitStruct.Pull = GPIO_NOPULL;
 103:USB_Device/Target/usbd_conf.c ****     GPIO_InitStruct.Speed = GPIO_SPEED_FREQ_LOW;
 104:USB_Device/Target/usbd_conf.c ****     GPIO_InitStruct.Alternate = GPIO_AF10_USB;
 105:USB_Device/Target/usbd_conf.c ****     HAL_GPIO_Init(GPIOA, &GPIO_InitStruct);
 106:USB_Device/Target/usbd_conf.c **** 
 107:USB_Device/Target/usbd_conf.c ****     /* Peripheral clock enable */
 108:USB_Device/Target/usbd_conf.c ****     __HAL_RCC_USB_CLK_ENABLE();
 109:USB_Device/Target/usbd_conf.c **** 
 110:USB_Device/Target/usbd_conf.c ****     /* Peripheral interrupt init */
 111:USB_Device/Target/usbd_conf.c ****     HAL_NVIC_SetPriority(USB_FS_IRQn, 0, 0);
 112:USB_Device/Target/usbd_conf.c ****     HAL_NVIC_EnableIRQ(USB_FS_IRQn);
 113:USB_Device/Target/usbd_conf.c ****   /* USER CODE BEGIN USB_MspInit 1 */
 114:USB_Device/Target/usbd_conf.c **** 
 115:USB_Device/Target/usbd_conf.c ****   /* USER CODE END USB_MspInit 1 */
 116:USB_Device/Target/usbd_conf.c ****   }
 117:USB_Device/Target/usbd_conf.c **** }
 118:USB_Device/Target/usbd_conf.c **** 
 119:USB_Device/Target/usbd_conf.c **** void HAL_PCD_MspDeInit(PCD_HandleTypeDef* pcdHandle)
 120:USB_Device/Target/usbd_conf.c **** {
 121:USB_Device/Target/usbd_conf.c ****   if(pcdHandle->Instance==USB)
 122:USB_Device/Target/usbd_conf.c ****   {
 123:USB_Device/Target/usbd_conf.c ****   /* USER CODE BEGIN USB_MspDeInit 0 */
 124:USB_Device/Target/usbd_conf.c **** 
 125:USB_Device/Target/usbd_conf.c ****   /* USER CODE END USB_MspDeInit 0 */
 126:USB_Device/Target/usbd_conf.c ****     /* Peripheral clock disable */
 127:USB_Device/Target/usbd_conf.c ****     __HAL_RCC_USB_CLK_DISABLE();
 128:USB_Device/Target/usbd_conf.c **** 
 129:USB_Device/Target/usbd_conf.c ****     /**USB GPIO Configuration
 130:USB_Device/Target/usbd_conf.c ****     PA11     ------> USB_DM
 131:USB_Device/Target/usbd_conf.c ****     PA12     ------> USB_DP
 132:USB_Device/Target/usbd_conf.c ****     */
 133:USB_Device/Target/usbd_conf.c ****     HAL_GPIO_DeInit(GPIOA, GPIO_PIN_11|GPIO_PIN_12);
 134:USB_Device/Target/usbd_conf.c **** 
 135:USB_Device/Target/usbd_conf.c ****     /* Peripheral interrupt Deinit*/
 136:USB_Device/Target/usbd_conf.c ****     HAL_NVIC_DisableIRQ(USB_FS_IRQn);
 137:USB_Device/Target/usbd_conf.c **** 
 138:USB_Device/Target/usbd_conf.c ****   /* USER CODE BEGIN USB_MspDeInit 1 */
 139:USB_Device/Target/usbd_conf.c **** 
 140:USB_Device/Target/usbd_conf.c ****   /* USER CODE END USB_MspDeInit 1 */
 141:USB_Device/Target/usbd_conf.c ****   }
 142:USB_Device/Target/usbd_conf.c **** }
 143:USB_Device/Target/usbd_conf.c **** 
ARM GAS  /tmp/ccrRyNXj.s 			page 4


 144:USB_Device/Target/usbd_conf.c **** /**
 145:USB_Device/Target/usbd_conf.c ****   * @brief  Setup stage callback
 146:USB_Device/Target/usbd_conf.c ****   * @param  hpcd: PCD handle
 147:USB_Device/Target/usbd_conf.c ****   * @retval None
 148:USB_Device/Target/usbd_conf.c ****   */
 149:USB_Device/Target/usbd_conf.c **** #if (USE_HAL_PCD_REGISTER_CALLBACKS == 1U)
 150:USB_Device/Target/usbd_conf.c **** static void PCD_SetupStageCallback(PCD_HandleTypeDef *hpcd)
 151:USB_Device/Target/usbd_conf.c **** #else
 152:USB_Device/Target/usbd_conf.c **** void HAL_PCD_SetupStageCallback(PCD_HandleTypeDef *hpcd)
 153:USB_Device/Target/usbd_conf.c **** #endif /* USE_HAL_PCD_REGISTER_CALLBACKS */
 154:USB_Device/Target/usbd_conf.c **** {
 155:USB_Device/Target/usbd_conf.c ****   /* USER CODE BEGIN HAL_PCD_SetupStageCallback_PreTreatment */
 156:USB_Device/Target/usbd_conf.c **** 
 157:USB_Device/Target/usbd_conf.c ****   /* USER CODE END  HAL_PCD_SetupStageCallback_PreTreatment */
 158:USB_Device/Target/usbd_conf.c ****   USBD_LL_SetupStage((USBD_HandleTypeDef*)hpcd->pData, (uint8_t *)hpcd->Setup);
 159:USB_Device/Target/usbd_conf.c ****   /* USER CODE BEGIN HAL_PCD_SetupStageCallback_PostTreatment */
 160:USB_Device/Target/usbd_conf.c **** 
 161:USB_Device/Target/usbd_conf.c ****   /* USER CODE END  HAL_PCD_SetupStageCallback_PostTreatment */
 162:USB_Device/Target/usbd_conf.c **** }
 163:USB_Device/Target/usbd_conf.c **** 
 164:USB_Device/Target/usbd_conf.c **** /**
 165:USB_Device/Target/usbd_conf.c ****   * @brief  Data Out stage callback.
 166:USB_Device/Target/usbd_conf.c ****   * @param  hpcd: PCD handle
 167:USB_Device/Target/usbd_conf.c ****   * @param  epnum: Endpoint number
 168:USB_Device/Target/usbd_conf.c ****   * @retval None
 169:USB_Device/Target/usbd_conf.c ****   */
 170:USB_Device/Target/usbd_conf.c **** #if (USE_HAL_PCD_REGISTER_CALLBACKS == 1U)
 171:USB_Device/Target/usbd_conf.c **** static void PCD_DataOutStageCallback(PCD_HandleTypeDef *hpcd, uint8_t epnum)
 172:USB_Device/Target/usbd_conf.c **** #else
 173:USB_Device/Target/usbd_conf.c **** void HAL_PCD_DataOutStageCallback(PCD_HandleTypeDef *hpcd, uint8_t epnum)
 174:USB_Device/Target/usbd_conf.c **** #endif /* USE_HAL_PCD_REGISTER_CALLBACKS */
 175:USB_Device/Target/usbd_conf.c **** {
 176:USB_Device/Target/usbd_conf.c ****   /* USER CODE BEGIN HAL_PCD_DataOutStageCallback_PreTreatment */
 177:USB_Device/Target/usbd_conf.c ****   
 178:USB_Device/Target/usbd_conf.c ****   /* USER CODE END HAL_PCD_DataOutStageCallback_PreTreatment */
 179:USB_Device/Target/usbd_conf.c ****   USBD_LL_DataOutStage((USBD_HandleTypeDef*)hpcd->pData, epnum, hpcd->OUT_ep[epnum].xfer_buff);
 180:USB_Device/Target/usbd_conf.c ****   /* USER CODE BEGIN HAL_PCD_DataOutStageCallback_PostTreatment */
 181:USB_Device/Target/usbd_conf.c **** 
 182:USB_Device/Target/usbd_conf.c ****   /* USER CODE END HAL_PCD_DataOutStageCallback_PostTreatment */
 183:USB_Device/Target/usbd_conf.c **** }
 184:USB_Device/Target/usbd_conf.c **** 
 185:USB_Device/Target/usbd_conf.c **** /**
 186:USB_Device/Target/usbd_conf.c ****   * @brief  Data In stage callback.
 187:USB_Device/Target/usbd_conf.c ****   * @param  hpcd: PCD handle
 188:USB_Device/Target/usbd_conf.c ****   * @param  epnum: Endpoint number
 189:USB_Device/Target/usbd_conf.c ****   * @retval None
 190:USB_Device/Target/usbd_conf.c ****   */
 191:USB_Device/Target/usbd_conf.c **** #if (USE_HAL_PCD_REGISTER_CALLBACKS == 1U)
 192:USB_Device/Target/usbd_conf.c **** static void PCD_DataInStageCallback(PCD_HandleTypeDef *hpcd, uint8_t epnum)
 193:USB_Device/Target/usbd_conf.c **** #else
 194:USB_Device/Target/usbd_conf.c **** void HAL_PCD_DataInStageCallback(PCD_HandleTypeDef *hpcd, uint8_t epnum)
 195:USB_Device/Target/usbd_conf.c **** #endif /* USE_HAL_PCD_REGISTER_CALLBACKS */
 196:USB_Device/Target/usbd_conf.c **** {
 197:USB_Device/Target/usbd_conf.c ****   /* USER CODE BEGIN HAL_PCD_DataInStageCallback_PreTreatment */
 198:USB_Device/Target/usbd_conf.c **** 
 199:USB_Device/Target/usbd_conf.c ****   /* USER CODE END HAL_PCD_DataInStageCallback_PreTreatment */
 200:USB_Device/Target/usbd_conf.c ****   USBD_LL_DataInStage((USBD_HandleTypeDef*)hpcd->pData, epnum, hpcd->IN_ep[epnum].xfer_buff);
ARM GAS  /tmp/ccrRyNXj.s 			page 5


 201:USB_Device/Target/usbd_conf.c ****   /* USER CODE BEGIN HAL_PCD_DataInStageCallback_PostTreatment  */
 202:USB_Device/Target/usbd_conf.c **** 
 203:USB_Device/Target/usbd_conf.c ****   /* USER CODE END HAL_PCD_DataInStageCallback_PostTreatment */
 204:USB_Device/Target/usbd_conf.c **** }
 205:USB_Device/Target/usbd_conf.c **** 
 206:USB_Device/Target/usbd_conf.c **** /**
 207:USB_Device/Target/usbd_conf.c ****   * @brief  SOF callback.
 208:USB_Device/Target/usbd_conf.c ****   * @param  hpcd: PCD handle
 209:USB_Device/Target/usbd_conf.c ****   * @retval None
 210:USB_Device/Target/usbd_conf.c ****   */
 211:USB_Device/Target/usbd_conf.c **** #if (USE_HAL_PCD_REGISTER_CALLBACKS == 1U)
 212:USB_Device/Target/usbd_conf.c **** static void PCD_SOFCallback(PCD_HandleTypeDef *hpcd)
 213:USB_Device/Target/usbd_conf.c **** #else
 214:USB_Device/Target/usbd_conf.c **** void HAL_PCD_SOFCallback(PCD_HandleTypeDef *hpcd)
 215:USB_Device/Target/usbd_conf.c **** #endif /* USE_HAL_PCD_REGISTER_CALLBACKS */
 216:USB_Device/Target/usbd_conf.c **** {
 217:USB_Device/Target/usbd_conf.c ****   /* USER CODE BEGIN HAL_PCD_SOFCallback_PreTreatment */
 218:USB_Device/Target/usbd_conf.c **** 
 219:USB_Device/Target/usbd_conf.c ****   /* USER CODE END HAL_PCD_SOFCallback_PreTreatment */
 220:USB_Device/Target/usbd_conf.c ****   USBD_LL_SOF((USBD_HandleTypeDef*)hpcd->pData);
 221:USB_Device/Target/usbd_conf.c ****   /* USER CODE BEGIN HAL_PCD_SOFCallback_PostTreatment */
 222:USB_Device/Target/usbd_conf.c **** 
 223:USB_Device/Target/usbd_conf.c ****   /* USER CODE END HAL_PCD_SOFCallback_PostTreatment */
 224:USB_Device/Target/usbd_conf.c **** }
 225:USB_Device/Target/usbd_conf.c **** 
 226:USB_Device/Target/usbd_conf.c **** /**
 227:USB_Device/Target/usbd_conf.c ****   * @brief  Reset callback.
 228:USB_Device/Target/usbd_conf.c ****   * @param  hpcd: PCD handle
 229:USB_Device/Target/usbd_conf.c ****   * @retval None
 230:USB_Device/Target/usbd_conf.c ****   */
 231:USB_Device/Target/usbd_conf.c **** #if (USE_HAL_PCD_REGISTER_CALLBACKS == 1U)
 232:USB_Device/Target/usbd_conf.c **** static void PCD_ResetCallback(PCD_HandleTypeDef *hpcd)
 233:USB_Device/Target/usbd_conf.c **** #else
 234:USB_Device/Target/usbd_conf.c **** void HAL_PCD_ResetCallback(PCD_HandleTypeDef *hpcd)
 235:USB_Device/Target/usbd_conf.c **** #endif /* USE_HAL_PCD_REGISTER_CALLBACKS */
 236:USB_Device/Target/usbd_conf.c **** {
 237:USB_Device/Target/usbd_conf.c ****   /* USER CODE BEGIN HAL_PCD_ResetCallback_PreTreatment */
 238:USB_Device/Target/usbd_conf.c **** 
 239:USB_Device/Target/usbd_conf.c ****   /* USER CODE END HAL_PCD_ResetCallback_PreTreatment */
 240:USB_Device/Target/usbd_conf.c ****   USBD_SpeedTypeDef speed = USBD_SPEED_FULL;
 241:USB_Device/Target/usbd_conf.c **** 
 242:USB_Device/Target/usbd_conf.c ****   if ( hpcd->Init.speed != PCD_SPEED_FULL)
 243:USB_Device/Target/usbd_conf.c ****   {
 244:USB_Device/Target/usbd_conf.c ****     Error_Handler();
 245:USB_Device/Target/usbd_conf.c ****   }
 246:USB_Device/Target/usbd_conf.c ****     /* Set Speed. */
 247:USB_Device/Target/usbd_conf.c ****   USBD_LL_SetSpeed((USBD_HandleTypeDef*)hpcd->pData, speed);
 248:USB_Device/Target/usbd_conf.c **** 
 249:USB_Device/Target/usbd_conf.c ****   /* Reset Device. */
 250:USB_Device/Target/usbd_conf.c ****   USBD_LL_Reset((USBD_HandleTypeDef*)hpcd->pData);
 251:USB_Device/Target/usbd_conf.c ****   /* USER CODE BEGIN HAL_PCD_ResetCallback_PostTreatment */
 252:USB_Device/Target/usbd_conf.c **** 
 253:USB_Device/Target/usbd_conf.c ****   /* USER CODE END HAL_PCD_ResetCallback_PostTreatment */
 254:USB_Device/Target/usbd_conf.c **** }
 255:USB_Device/Target/usbd_conf.c **** 
 256:USB_Device/Target/usbd_conf.c **** /**
 257:USB_Device/Target/usbd_conf.c ****   * @brief  Suspend callback.
ARM GAS  /tmp/ccrRyNXj.s 			page 6


 258:USB_Device/Target/usbd_conf.c ****   * When Low power mode is enabled the debug cannot be used (IAR, Keil doesn't support it)
 259:USB_Device/Target/usbd_conf.c ****   * @param  hpcd: PCD handle
 260:USB_Device/Target/usbd_conf.c ****   * @retval None
 261:USB_Device/Target/usbd_conf.c ****   */
 262:USB_Device/Target/usbd_conf.c **** #if (USE_HAL_PCD_REGISTER_CALLBACKS == 1U)
 263:USB_Device/Target/usbd_conf.c **** static void PCD_SuspendCallback(PCD_HandleTypeDef *hpcd)
 264:USB_Device/Target/usbd_conf.c **** #else
 265:USB_Device/Target/usbd_conf.c **** void HAL_PCD_SuspendCallback(PCD_HandleTypeDef *hpcd)
 266:USB_Device/Target/usbd_conf.c **** #endif /* USE_HAL_PCD_REGISTER_CALLBACKS */
 267:USB_Device/Target/usbd_conf.c **** {
 268:USB_Device/Target/usbd_conf.c ****   /* USER CODE BEGIN HAL_PCD_SuspendCallback_PreTreatment */
 269:USB_Device/Target/usbd_conf.c **** 
 270:USB_Device/Target/usbd_conf.c ****   /* USER CODE END HAL_PCD_SuspendCallback_PreTreatment */
 271:USB_Device/Target/usbd_conf.c ****   /* Inform USB library that core enters in suspend Mode. */
 272:USB_Device/Target/usbd_conf.c ****   USBD_LL_Suspend((USBD_HandleTypeDef*)hpcd->pData);
 273:USB_Device/Target/usbd_conf.c ****   /* Enter in STOP mode. */
 274:USB_Device/Target/usbd_conf.c ****   /* USER CODE BEGIN 2 */
 275:USB_Device/Target/usbd_conf.c ****   if (hpcd->Init.low_power_enable)
 276:USB_Device/Target/usbd_conf.c ****   {
 277:USB_Device/Target/usbd_conf.c ****     /* Set SLEEPDEEP bit and SleepOnExit of Cortex System Control Register. */
 278:USB_Device/Target/usbd_conf.c ****     SCB->SCR |= (uint32_t)((uint32_t)(SCB_SCR_SLEEPDEEP_Msk | SCB_SCR_SLEEPONEXIT_Msk));
 279:USB_Device/Target/usbd_conf.c ****   }
 280:USB_Device/Target/usbd_conf.c ****   /* USER CODE END 2 */
 281:USB_Device/Target/usbd_conf.c ****   /* USER CODE BEGIN HAL_PCD_SuspendCallback_PostTreatment */
 282:USB_Device/Target/usbd_conf.c **** 
 283:USB_Device/Target/usbd_conf.c ****   /* USER CODE END HAL_PCD_SuspendCallback_PostTreatment */
 284:USB_Device/Target/usbd_conf.c **** }
 285:USB_Device/Target/usbd_conf.c **** 
 286:USB_Device/Target/usbd_conf.c **** /**
 287:USB_Device/Target/usbd_conf.c ****   * @brief  Resume callback.
 288:USB_Device/Target/usbd_conf.c ****   * When Low power mode is enabled the debug cannot be used (IAR, Keil doesn't support it)
 289:USB_Device/Target/usbd_conf.c ****   * @param  hpcd: PCD handle
 290:USB_Device/Target/usbd_conf.c ****   * @retval None
 291:USB_Device/Target/usbd_conf.c ****   */
 292:USB_Device/Target/usbd_conf.c **** #if (USE_HAL_PCD_REGISTER_CALLBACKS == 1U)
 293:USB_Device/Target/usbd_conf.c **** static void PCD_ResumeCallback(PCD_HandleTypeDef *hpcd)
 294:USB_Device/Target/usbd_conf.c **** #else
 295:USB_Device/Target/usbd_conf.c **** void HAL_PCD_ResumeCallback(PCD_HandleTypeDef *hpcd)
 296:USB_Device/Target/usbd_conf.c **** #endif /* USE_HAL_PCD_REGISTER_CALLBACKS */
 297:USB_Device/Target/usbd_conf.c **** {
 298:USB_Device/Target/usbd_conf.c ****   /* USER CODE BEGIN HAL_PCD_ResumeCallback_PreTreatment */
 299:USB_Device/Target/usbd_conf.c **** 
 300:USB_Device/Target/usbd_conf.c ****   /* USER CODE END HAL_PCD_ResumeCallback_PreTreatment */
 301:USB_Device/Target/usbd_conf.c **** 
 302:USB_Device/Target/usbd_conf.c ****   /* USER CODE BEGIN 3 */
 303:USB_Device/Target/usbd_conf.c ****   if (hpcd->Init.low_power_enable)
 304:USB_Device/Target/usbd_conf.c ****   {
 305:USB_Device/Target/usbd_conf.c ****     /* Reset SLEEPDEEP bit of Cortex System Control Register. */
 306:USB_Device/Target/usbd_conf.c ****     SCB->SCR &= (uint32_t)~((uint32_t)(SCB_SCR_SLEEPDEEP_Msk | SCB_SCR_SLEEPONEXIT_Msk));
 307:USB_Device/Target/usbd_conf.c ****     SystemClockConfig_Resume();
 308:USB_Device/Target/usbd_conf.c ****   }
 309:USB_Device/Target/usbd_conf.c ****   /* USER CODE END 3 */
 310:USB_Device/Target/usbd_conf.c **** 
 311:USB_Device/Target/usbd_conf.c ****   USBD_LL_Resume((USBD_HandleTypeDef*)hpcd->pData);
 312:USB_Device/Target/usbd_conf.c ****   /* USER CODE BEGIN HAL_PCD_ResumeCallback_PostTreatment */
 313:USB_Device/Target/usbd_conf.c **** 
 314:USB_Device/Target/usbd_conf.c ****   /* USER CODE END HAL_PCD_ResumeCallback_PostTreatment */
ARM GAS  /tmp/ccrRyNXj.s 			page 7


 315:USB_Device/Target/usbd_conf.c **** }
 316:USB_Device/Target/usbd_conf.c **** 
 317:USB_Device/Target/usbd_conf.c **** /**
 318:USB_Device/Target/usbd_conf.c ****   * @brief  ISOOUTIncomplete callback.
 319:USB_Device/Target/usbd_conf.c ****   * @param  hpcd: PCD handle
 320:USB_Device/Target/usbd_conf.c ****   * @param  epnum: Endpoint number
 321:USB_Device/Target/usbd_conf.c ****   * @retval None
 322:USB_Device/Target/usbd_conf.c ****   */
 323:USB_Device/Target/usbd_conf.c **** #if (USE_HAL_PCD_REGISTER_CALLBACKS == 1U)
 324:USB_Device/Target/usbd_conf.c **** static void PCD_ISOOUTIncompleteCallback(PCD_HandleTypeDef *hpcd, uint8_t epnum)
 325:USB_Device/Target/usbd_conf.c **** #else
 326:USB_Device/Target/usbd_conf.c **** void HAL_PCD_ISOOUTIncompleteCallback(PCD_HandleTypeDef *hpcd, uint8_t epnum)
 327:USB_Device/Target/usbd_conf.c **** #endif /* USE_HAL_PCD_REGISTER_CALLBACKS */
 328:USB_Device/Target/usbd_conf.c **** {
 329:USB_Device/Target/usbd_conf.c ****   /* USER CODE BEGIN HAL_PCD_ISOOUTIncompleteCallback_PreTreatment */
 330:USB_Device/Target/usbd_conf.c **** 
 331:USB_Device/Target/usbd_conf.c ****   /* USER CODE END HAL_PCD_ISOOUTIncompleteCallback_PreTreatment */
 332:USB_Device/Target/usbd_conf.c ****   USBD_LL_IsoOUTIncomplete((USBD_HandleTypeDef*)hpcd->pData, epnum);
 333:USB_Device/Target/usbd_conf.c ****   /* USER CODE BEGIN HAL_PCD_ISOOUTIncompleteCallback_PostTreatment */
 334:USB_Device/Target/usbd_conf.c **** 
 335:USB_Device/Target/usbd_conf.c ****   /* USER CODE END HAL_PCD_ISOOUTIncompleteCallback_PostTreatment */
 336:USB_Device/Target/usbd_conf.c **** }
 337:USB_Device/Target/usbd_conf.c **** 
 338:USB_Device/Target/usbd_conf.c **** /**
 339:USB_Device/Target/usbd_conf.c ****   * @brief  ISOINIncomplete callback.
 340:USB_Device/Target/usbd_conf.c ****   * @param  hpcd: PCD handle
 341:USB_Device/Target/usbd_conf.c ****   * @param  epnum: Endpoint number
 342:USB_Device/Target/usbd_conf.c ****   * @retval None
 343:USB_Device/Target/usbd_conf.c ****   */
 344:USB_Device/Target/usbd_conf.c **** #if (USE_HAL_PCD_REGISTER_CALLBACKS == 1U)
 345:USB_Device/Target/usbd_conf.c **** static void PCD_ISOINIncompleteCallback(PCD_HandleTypeDef *hpcd, uint8_t epnum)
 346:USB_Device/Target/usbd_conf.c **** #else
 347:USB_Device/Target/usbd_conf.c **** void HAL_PCD_ISOINIncompleteCallback(PCD_HandleTypeDef *hpcd, uint8_t epnum)
 348:USB_Device/Target/usbd_conf.c **** #endif /* USE_HAL_PCD_REGISTER_CALLBACKS */
 349:USB_Device/Target/usbd_conf.c **** {
 350:USB_Device/Target/usbd_conf.c ****   /* USER CODE BEGIN HAL_PCD_ISOINIncompleteCallback_PreTreatment */
 351:USB_Device/Target/usbd_conf.c **** 
 352:USB_Device/Target/usbd_conf.c ****   /* USER CODE END HAL_PCD_ISOINIncompleteCallback_PreTreatment */
 353:USB_Device/Target/usbd_conf.c ****   USBD_LL_IsoINIncomplete((USBD_HandleTypeDef*)hpcd->pData, epnum);
 354:USB_Device/Target/usbd_conf.c ****   /* USER CODE BEGIN HAL_PCD_ISOINIncompleteCallback_PostTreatment */
 355:USB_Device/Target/usbd_conf.c **** 
 356:USB_Device/Target/usbd_conf.c ****   /* USER CODE END HAL_PCD_ISOINIncompleteCallback_PostTreatment */
 357:USB_Device/Target/usbd_conf.c **** }
 358:USB_Device/Target/usbd_conf.c **** 
 359:USB_Device/Target/usbd_conf.c **** /**
 360:USB_Device/Target/usbd_conf.c ****   * @brief  Connect callback.
 361:USB_Device/Target/usbd_conf.c ****   * @param  hpcd: PCD handle
 362:USB_Device/Target/usbd_conf.c ****   * @retval None
 363:USB_Device/Target/usbd_conf.c ****   */
 364:USB_Device/Target/usbd_conf.c **** #if (USE_HAL_PCD_REGISTER_CALLBACKS == 1U)
 365:USB_Device/Target/usbd_conf.c **** static void PCD_ConnectCallback(PCD_HandleTypeDef *hpcd)
 366:USB_Device/Target/usbd_conf.c **** #else
 367:USB_Device/Target/usbd_conf.c **** void HAL_PCD_ConnectCallback(PCD_HandleTypeDef *hpcd)
 368:USB_Device/Target/usbd_conf.c **** #endif /* USE_HAL_PCD_REGISTER_CALLBACKS */
 369:USB_Device/Target/usbd_conf.c **** {
 370:USB_Device/Target/usbd_conf.c ****   /* USER CODE BEGIN HAL_PCD_ConnectCallback_PreTreatment */
 371:USB_Device/Target/usbd_conf.c **** 
ARM GAS  /tmp/ccrRyNXj.s 			page 8


 372:USB_Device/Target/usbd_conf.c ****   /* USER CODE END HAL_PCD_ConnectCallback_PreTreatment */
 373:USB_Device/Target/usbd_conf.c ****   USBD_LL_DevConnected((USBD_HandleTypeDef*)hpcd->pData);
 374:USB_Device/Target/usbd_conf.c ****   /* USER CODE BEGIN HAL_PCD_ConnectCallback_PostTreatment */
 375:USB_Device/Target/usbd_conf.c **** 
 376:USB_Device/Target/usbd_conf.c ****   /* USER CODE END HAL_PCD_ConnectCallback_PostTreatment */
 377:USB_Device/Target/usbd_conf.c **** }
 378:USB_Device/Target/usbd_conf.c **** 
 379:USB_Device/Target/usbd_conf.c **** /**
 380:USB_Device/Target/usbd_conf.c ****   * @brief  Disconnect callback.
 381:USB_Device/Target/usbd_conf.c ****   * @param  hpcd: PCD handle
 382:USB_Device/Target/usbd_conf.c ****   * @retval None
 383:USB_Device/Target/usbd_conf.c ****   */
 384:USB_Device/Target/usbd_conf.c **** #if (USE_HAL_PCD_REGISTER_CALLBACKS == 1U)
 385:USB_Device/Target/usbd_conf.c **** static void PCD_DisconnectCallback(PCD_HandleTypeDef *hpcd)
 386:USB_Device/Target/usbd_conf.c **** #else
 387:USB_Device/Target/usbd_conf.c **** void HAL_PCD_DisconnectCallback(PCD_HandleTypeDef *hpcd)
 388:USB_Device/Target/usbd_conf.c **** #endif /* USE_HAL_PCD_REGISTER_CALLBACKS */
 389:USB_Device/Target/usbd_conf.c **** {
 390:USB_Device/Target/usbd_conf.c ****   /* USER CODE BEGIN HAL_PCD_DisconnectCallback_PreTreatment */
 391:USB_Device/Target/usbd_conf.c **** 
 392:USB_Device/Target/usbd_conf.c ****   /* USER CODE END HAL_PCD_DisconnectCallback_PreTreatment */
 393:USB_Device/Target/usbd_conf.c ****   USBD_LL_DevDisconnected((USBD_HandleTypeDef*)hpcd->pData);
 394:USB_Device/Target/usbd_conf.c ****   /* USER CODE BEGIN HAL_PCD_DisconnectCallback_PostTreatment */
 395:USB_Device/Target/usbd_conf.c **** 
 396:USB_Device/Target/usbd_conf.c ****   /* USER CODE END HAL_PCD_DisconnectCallback_PostTreatment */
 397:USB_Device/Target/usbd_conf.c **** }
 398:USB_Device/Target/usbd_conf.c **** 
 399:USB_Device/Target/usbd_conf.c ****   /* USER CODE BEGIN LowLevelInterface */
 400:USB_Device/Target/usbd_conf.c **** 
 401:USB_Device/Target/usbd_conf.c ****   /* USER CODE END LowLevelInterface */
 402:USB_Device/Target/usbd_conf.c **** 
 403:USB_Device/Target/usbd_conf.c **** /*******************************************************************************
 404:USB_Device/Target/usbd_conf.c ****                        LL Driver Interface (USB Device Library --> PCD)
 405:USB_Device/Target/usbd_conf.c **** *******************************************************************************/
 406:USB_Device/Target/usbd_conf.c **** 
 407:USB_Device/Target/usbd_conf.c **** /**
 408:USB_Device/Target/usbd_conf.c ****   * @brief  Initializes the low level portion of the device driver.
 409:USB_Device/Target/usbd_conf.c ****   * @param  pdev: Device handle
 410:USB_Device/Target/usbd_conf.c ****   * @retval USBD status
 411:USB_Device/Target/usbd_conf.c ****   */
 412:USB_Device/Target/usbd_conf.c **** USBD_StatusTypeDef USBD_LL_Init(USBD_HandleTypeDef *pdev)
 413:USB_Device/Target/usbd_conf.c **** {
 414:USB_Device/Target/usbd_conf.c ****   /* Init USB Ip. */
 415:USB_Device/Target/usbd_conf.c ****   hpcd_USB_FS.pData = pdev;
 416:USB_Device/Target/usbd_conf.c ****   /* Link the driver to the stack. */
 417:USB_Device/Target/usbd_conf.c ****   pdev->pData = &hpcd_USB_FS;
 418:USB_Device/Target/usbd_conf.c **** /* Enable USB power on Pwrctrl CR2 register. */
 419:USB_Device/Target/usbd_conf.c ****   HAL_PWREx_EnableVddUSB();
 420:USB_Device/Target/usbd_conf.c **** 
 421:USB_Device/Target/usbd_conf.c ****   hpcd_USB_FS.Instance = USB;
 422:USB_Device/Target/usbd_conf.c ****   hpcd_USB_FS.Init.dev_endpoints = 8;
 423:USB_Device/Target/usbd_conf.c ****   hpcd_USB_FS.Init.speed = PCD_SPEED_FULL;
 424:USB_Device/Target/usbd_conf.c ****   hpcd_USB_FS.Init.phy_itface = PCD_PHY_EMBEDDED;
 425:USB_Device/Target/usbd_conf.c ****   hpcd_USB_FS.Init.Sof_enable = DISABLE;
 426:USB_Device/Target/usbd_conf.c ****   hpcd_USB_FS.Init.low_power_enable = DISABLE;
 427:USB_Device/Target/usbd_conf.c ****   hpcd_USB_FS.Init.lpm_enable = DISABLE;
 428:USB_Device/Target/usbd_conf.c ****   hpcd_USB_FS.Init.battery_charging_enable = DISABLE;
ARM GAS  /tmp/ccrRyNXj.s 			page 9


 429:USB_Device/Target/usbd_conf.c ****   if (HAL_PCD_Init(&hpcd_USB_FS) != HAL_OK)
 430:USB_Device/Target/usbd_conf.c ****   {
 431:USB_Device/Target/usbd_conf.c ****     Error_Handler( );
 432:USB_Device/Target/usbd_conf.c ****   }
 433:USB_Device/Target/usbd_conf.c **** 
 434:USB_Device/Target/usbd_conf.c **** #if (USE_HAL_PCD_REGISTER_CALLBACKS == 1U)
 435:USB_Device/Target/usbd_conf.c ****   /* Register USB PCD CallBacks */
 436:USB_Device/Target/usbd_conf.c ****   HAL_PCD_RegisterCallback(&hpcd_USB_FS, HAL_PCD_SOF_CB_ID, PCD_SOFCallback);
 437:USB_Device/Target/usbd_conf.c ****   HAL_PCD_RegisterCallback(&hpcd_USB_FS, HAL_PCD_SETUPSTAGE_CB_ID, PCD_SetupStageCallback);
 438:USB_Device/Target/usbd_conf.c ****   HAL_PCD_RegisterCallback(&hpcd_USB_FS, HAL_PCD_RESET_CB_ID, PCD_ResetCallback);
 439:USB_Device/Target/usbd_conf.c ****   HAL_PCD_RegisterCallback(&hpcd_USB_FS, HAL_PCD_SUSPEND_CB_ID, PCD_SuspendCallback);
 440:USB_Device/Target/usbd_conf.c ****   HAL_PCD_RegisterCallback(&hpcd_USB_FS, HAL_PCD_RESUME_CB_ID, PCD_ResumeCallback);
 441:USB_Device/Target/usbd_conf.c ****   HAL_PCD_RegisterCallback(&hpcd_USB_FS, HAL_PCD_CONNECT_CB_ID, PCD_ConnectCallback);
 442:USB_Device/Target/usbd_conf.c ****   HAL_PCD_RegisterCallback(&hpcd_USB_FS, HAL_PCD_DISCONNECT_CB_ID, PCD_DisconnectCallback);
 443:USB_Device/Target/usbd_conf.c ****   /* USER CODE BEGIN RegisterCallBackFirstPart */
 444:USB_Device/Target/usbd_conf.c **** 
 445:USB_Device/Target/usbd_conf.c ****   /* USER CODE END RegisterCallBackFirstPart */
 446:USB_Device/Target/usbd_conf.c ****   HAL_PCD_RegisterDataOutStageCallback(&hpcd_USB_FS, PCD_DataOutStageCallback);
 447:USB_Device/Target/usbd_conf.c ****   HAL_PCD_RegisterDataInStageCallback(&hpcd_USB_FS, PCD_DataInStageCallback);
 448:USB_Device/Target/usbd_conf.c ****   HAL_PCD_RegisterIsoOutIncpltCallback(&hpcd_USB_FS, PCD_ISOOUTIncompleteCallback);
 449:USB_Device/Target/usbd_conf.c ****   HAL_PCD_RegisterIsoInIncpltCallback(&hpcd_USB_FS, PCD_ISOINIncompleteCallback);
 450:USB_Device/Target/usbd_conf.c ****   /* USER CODE BEGIN RegisterCallBackSecondPart */
 451:USB_Device/Target/usbd_conf.c **** 
 452:USB_Device/Target/usbd_conf.c ****   /* USER CODE END RegisterCallBackSecondPart */
 453:USB_Device/Target/usbd_conf.c **** #endif /* USE_HAL_PCD_REGISTER_CALLBACKS */
 454:USB_Device/Target/usbd_conf.c ****   /* USER CODE BEGIN EndPoint_Configuration */
 455:USB_Device/Target/usbd_conf.c ****   HAL_PCDEx_PMAConfig((PCD_HandleTypeDef*)pdev->pData , 0x00 , PCD_SNG_BUF, 0x18);
 456:USB_Device/Target/usbd_conf.c ****   HAL_PCDEx_PMAConfig((PCD_HandleTypeDef*)pdev->pData , 0x80 , PCD_SNG_BUF, 0x58);
 457:USB_Device/Target/usbd_conf.c ****   /* USER CODE END EndPoint_Configuration */
 458:USB_Device/Target/usbd_conf.c ****   /* USER CODE BEGIN EndPoint_Configuration_HID */
 459:USB_Device/Target/usbd_conf.c ****   HAL_PCDEx_PMAConfig((PCD_HandleTypeDef*)pdev->pData , 0x81 , PCD_SNG_BUF, 0x100);
 460:USB_Device/Target/usbd_conf.c ****   /* USER CODE END EndPoint_Configuration_HID */
 461:USB_Device/Target/usbd_conf.c ****   return USBD_OK;
 462:USB_Device/Target/usbd_conf.c **** }
 463:USB_Device/Target/usbd_conf.c **** 
 464:USB_Device/Target/usbd_conf.c **** /**
 465:USB_Device/Target/usbd_conf.c ****   * @brief  De-Initializes the low level portion of the device driver.
 466:USB_Device/Target/usbd_conf.c ****   * @param  pdev: Device handle
 467:USB_Device/Target/usbd_conf.c ****   * @retval USBD status
 468:USB_Device/Target/usbd_conf.c ****   */
 469:USB_Device/Target/usbd_conf.c **** USBD_StatusTypeDef USBD_LL_DeInit(USBD_HandleTypeDef *pdev)
 470:USB_Device/Target/usbd_conf.c **** {
 471:USB_Device/Target/usbd_conf.c ****   HAL_StatusTypeDef hal_status = HAL_OK;
 472:USB_Device/Target/usbd_conf.c ****   USBD_StatusTypeDef usb_status = USBD_OK;
 473:USB_Device/Target/usbd_conf.c **** 
 474:USB_Device/Target/usbd_conf.c ****   hal_status = HAL_PCD_DeInit(pdev->pData);
 475:USB_Device/Target/usbd_conf.c **** 
 476:USB_Device/Target/usbd_conf.c ****   usb_status =  USBD_Get_USB_Status(hal_status);
 477:USB_Device/Target/usbd_conf.c **** 
 478:USB_Device/Target/usbd_conf.c ****   return usb_status;
 479:USB_Device/Target/usbd_conf.c **** }
 480:USB_Device/Target/usbd_conf.c **** 
 481:USB_Device/Target/usbd_conf.c **** /**
 482:USB_Device/Target/usbd_conf.c ****   * @brief  Starts the low level portion of the device driver.
 483:USB_Device/Target/usbd_conf.c ****   * @param  pdev: Device handle
 484:USB_Device/Target/usbd_conf.c ****   * @retval USBD status
 485:USB_Device/Target/usbd_conf.c ****   */
ARM GAS  /tmp/ccrRyNXj.s 			page 10


 486:USB_Device/Target/usbd_conf.c **** USBD_StatusTypeDef USBD_LL_Start(USBD_HandleTypeDef *pdev)
 487:USB_Device/Target/usbd_conf.c **** {
 488:USB_Device/Target/usbd_conf.c ****   HAL_StatusTypeDef hal_status = HAL_OK;
 489:USB_Device/Target/usbd_conf.c ****   USBD_StatusTypeDef usb_status = USBD_OK;
 490:USB_Device/Target/usbd_conf.c **** 
 491:USB_Device/Target/usbd_conf.c ****   hal_status = HAL_PCD_Start(pdev->pData);
 492:USB_Device/Target/usbd_conf.c **** 
 493:USB_Device/Target/usbd_conf.c ****   usb_status =  USBD_Get_USB_Status(hal_status);
 494:USB_Device/Target/usbd_conf.c **** 
 495:USB_Device/Target/usbd_conf.c ****   return usb_status;
 496:USB_Device/Target/usbd_conf.c **** }
 497:USB_Device/Target/usbd_conf.c **** 
 498:USB_Device/Target/usbd_conf.c **** /**
 499:USB_Device/Target/usbd_conf.c ****   * @brief  Stops the low level portion of the device driver.
 500:USB_Device/Target/usbd_conf.c ****   * @param  pdev: Device handle
 501:USB_Device/Target/usbd_conf.c ****   * @retval USBD status
 502:USB_Device/Target/usbd_conf.c ****   */
 503:USB_Device/Target/usbd_conf.c **** USBD_StatusTypeDef USBD_LL_Stop(USBD_HandleTypeDef *pdev)
 504:USB_Device/Target/usbd_conf.c **** {
 505:USB_Device/Target/usbd_conf.c ****   HAL_StatusTypeDef hal_status = HAL_OK;
 506:USB_Device/Target/usbd_conf.c ****   USBD_StatusTypeDef usb_status = USBD_OK;
 507:USB_Device/Target/usbd_conf.c **** 
 508:USB_Device/Target/usbd_conf.c ****   hal_status = HAL_PCD_Stop(pdev->pData);
 509:USB_Device/Target/usbd_conf.c **** 
 510:USB_Device/Target/usbd_conf.c ****   usb_status =  USBD_Get_USB_Status(hal_status);
 511:USB_Device/Target/usbd_conf.c **** 
 512:USB_Device/Target/usbd_conf.c ****   return usb_status;
 513:USB_Device/Target/usbd_conf.c **** }
 514:USB_Device/Target/usbd_conf.c **** 
 515:USB_Device/Target/usbd_conf.c **** /**
 516:USB_Device/Target/usbd_conf.c ****   * @brief  Opens an endpoint of the low level driver.
 517:USB_Device/Target/usbd_conf.c ****   * @param  pdev: Device handle
 518:USB_Device/Target/usbd_conf.c ****   * @param  ep_addr: Endpoint number
 519:USB_Device/Target/usbd_conf.c ****   * @param  ep_type: Endpoint type
 520:USB_Device/Target/usbd_conf.c ****   * @param  ep_mps: Endpoint max packet size
 521:USB_Device/Target/usbd_conf.c ****   * @retval USBD status
 522:USB_Device/Target/usbd_conf.c ****   */
 523:USB_Device/Target/usbd_conf.c **** USBD_StatusTypeDef USBD_LL_OpenEP(USBD_HandleTypeDef *pdev, uint8_t ep_addr, uint8_t ep_type, uint1
 524:USB_Device/Target/usbd_conf.c **** {
 525:USB_Device/Target/usbd_conf.c ****   HAL_StatusTypeDef hal_status = HAL_OK;
 526:USB_Device/Target/usbd_conf.c ****   USBD_StatusTypeDef usb_status = USBD_OK;
 527:USB_Device/Target/usbd_conf.c **** 
 528:USB_Device/Target/usbd_conf.c ****   hal_status = HAL_PCD_EP_Open(pdev->pData, ep_addr, ep_mps, ep_type);
 529:USB_Device/Target/usbd_conf.c **** 
 530:USB_Device/Target/usbd_conf.c ****   usb_status =  USBD_Get_USB_Status(hal_status);
 531:USB_Device/Target/usbd_conf.c **** 
 532:USB_Device/Target/usbd_conf.c ****   return usb_status;
 533:USB_Device/Target/usbd_conf.c **** }
 534:USB_Device/Target/usbd_conf.c **** 
 535:USB_Device/Target/usbd_conf.c **** /**
 536:USB_Device/Target/usbd_conf.c ****   * @brief  Closes an endpoint of the low level driver.
 537:USB_Device/Target/usbd_conf.c ****   * @param  pdev: Device handle
 538:USB_Device/Target/usbd_conf.c ****   * @param  ep_addr: Endpoint number
 539:USB_Device/Target/usbd_conf.c ****   * @retval USBD status
 540:USB_Device/Target/usbd_conf.c ****   */
 541:USB_Device/Target/usbd_conf.c **** USBD_StatusTypeDef USBD_LL_CloseEP(USBD_HandleTypeDef *pdev, uint8_t ep_addr)
 542:USB_Device/Target/usbd_conf.c **** {
ARM GAS  /tmp/ccrRyNXj.s 			page 11


 543:USB_Device/Target/usbd_conf.c ****   HAL_StatusTypeDef hal_status = HAL_OK;
 544:USB_Device/Target/usbd_conf.c ****   USBD_StatusTypeDef usb_status = USBD_OK;
 545:USB_Device/Target/usbd_conf.c **** 
 546:USB_Device/Target/usbd_conf.c ****   hal_status = HAL_PCD_EP_Close(pdev->pData, ep_addr);
 547:USB_Device/Target/usbd_conf.c **** 
 548:USB_Device/Target/usbd_conf.c ****   usb_status =  USBD_Get_USB_Status(hal_status);
 549:USB_Device/Target/usbd_conf.c **** 
 550:USB_Device/Target/usbd_conf.c ****   return usb_status;
 551:USB_Device/Target/usbd_conf.c **** }
 552:USB_Device/Target/usbd_conf.c **** 
 553:USB_Device/Target/usbd_conf.c **** /**
 554:USB_Device/Target/usbd_conf.c ****   * @brief  Flushes an endpoint of the Low Level Driver.
 555:USB_Device/Target/usbd_conf.c ****   * @param  pdev: Device handle
 556:USB_Device/Target/usbd_conf.c ****   * @param  ep_addr: Endpoint number
 557:USB_Device/Target/usbd_conf.c ****   * @retval USBD status
 558:USB_Device/Target/usbd_conf.c ****   */
 559:USB_Device/Target/usbd_conf.c **** USBD_StatusTypeDef USBD_LL_FlushEP(USBD_HandleTypeDef *pdev, uint8_t ep_addr)
 560:USB_Device/Target/usbd_conf.c **** {
 561:USB_Device/Target/usbd_conf.c ****   HAL_StatusTypeDef hal_status = HAL_OK;
 562:USB_Device/Target/usbd_conf.c ****   USBD_StatusTypeDef usb_status = USBD_OK;
 563:USB_Device/Target/usbd_conf.c **** 
 564:USB_Device/Target/usbd_conf.c ****   hal_status = HAL_PCD_EP_Flush(pdev->pData, ep_addr);
 565:USB_Device/Target/usbd_conf.c **** 
 566:USB_Device/Target/usbd_conf.c ****   usb_status =  USBD_Get_USB_Status(hal_status);
 567:USB_Device/Target/usbd_conf.c **** 
 568:USB_Device/Target/usbd_conf.c ****   return usb_status;
 569:USB_Device/Target/usbd_conf.c **** }
 570:USB_Device/Target/usbd_conf.c **** 
 571:USB_Device/Target/usbd_conf.c **** /**
 572:USB_Device/Target/usbd_conf.c ****   * @brief  Sets a Stall condition on an endpoint of the Low Level Driver.
 573:USB_Device/Target/usbd_conf.c ****   * @param  pdev: Device handle
 574:USB_Device/Target/usbd_conf.c ****   * @param  ep_addr: Endpoint number
 575:USB_Device/Target/usbd_conf.c ****   * @retval USBD status
 576:USB_Device/Target/usbd_conf.c ****   */
 577:USB_Device/Target/usbd_conf.c **** USBD_StatusTypeDef USBD_LL_StallEP(USBD_HandleTypeDef *pdev, uint8_t ep_addr)
 578:USB_Device/Target/usbd_conf.c **** {
 579:USB_Device/Target/usbd_conf.c ****   HAL_StatusTypeDef hal_status = HAL_OK;
 580:USB_Device/Target/usbd_conf.c ****   USBD_StatusTypeDef usb_status = USBD_OK;
 581:USB_Device/Target/usbd_conf.c **** 
 582:USB_Device/Target/usbd_conf.c ****   hal_status = HAL_PCD_EP_SetStall(pdev->pData, ep_addr);
 583:USB_Device/Target/usbd_conf.c **** 
 584:USB_Device/Target/usbd_conf.c ****   usb_status =  USBD_Get_USB_Status(hal_status);
 585:USB_Device/Target/usbd_conf.c **** 
 586:USB_Device/Target/usbd_conf.c ****   return usb_status;
 587:USB_Device/Target/usbd_conf.c **** }
 588:USB_Device/Target/usbd_conf.c **** 
 589:USB_Device/Target/usbd_conf.c **** /**
 590:USB_Device/Target/usbd_conf.c ****   * @brief  Clears a Stall condition on an endpoint of the Low Level Driver.
 591:USB_Device/Target/usbd_conf.c ****   * @param  pdev: Device handle
 592:USB_Device/Target/usbd_conf.c ****   * @param  ep_addr: Endpoint number
 593:USB_Device/Target/usbd_conf.c ****   * @retval USBD status
 594:USB_Device/Target/usbd_conf.c ****   */
 595:USB_Device/Target/usbd_conf.c **** USBD_StatusTypeDef USBD_LL_ClearStallEP(USBD_HandleTypeDef *pdev, uint8_t ep_addr)
 596:USB_Device/Target/usbd_conf.c **** {
 597:USB_Device/Target/usbd_conf.c ****   HAL_StatusTypeDef hal_status = HAL_OK;
 598:USB_Device/Target/usbd_conf.c ****   USBD_StatusTypeDef usb_status = USBD_OK;
 599:USB_Device/Target/usbd_conf.c **** 
ARM GAS  /tmp/ccrRyNXj.s 			page 12


 600:USB_Device/Target/usbd_conf.c ****   hal_status = HAL_PCD_EP_ClrStall(pdev->pData, ep_addr);
 601:USB_Device/Target/usbd_conf.c **** 
 602:USB_Device/Target/usbd_conf.c ****   usb_status =  USBD_Get_USB_Status(hal_status);
 603:USB_Device/Target/usbd_conf.c **** 
 604:USB_Device/Target/usbd_conf.c ****   return usb_status;
 605:USB_Device/Target/usbd_conf.c **** }
 606:USB_Device/Target/usbd_conf.c **** 
 607:USB_Device/Target/usbd_conf.c **** /**
 608:USB_Device/Target/usbd_conf.c ****   * @brief  Returns Stall condition.
 609:USB_Device/Target/usbd_conf.c ****   * @param  pdev: Device handle
 610:USB_Device/Target/usbd_conf.c ****   * @param  ep_addr: Endpoint number
 611:USB_Device/Target/usbd_conf.c ****   * @retval Stall (1: Yes, 0: No)
 612:USB_Device/Target/usbd_conf.c ****   */
 613:USB_Device/Target/usbd_conf.c **** uint8_t USBD_LL_IsStallEP(USBD_HandleTypeDef *pdev, uint8_t ep_addr)
 614:USB_Device/Target/usbd_conf.c **** {
 615:USB_Device/Target/usbd_conf.c ****   PCD_HandleTypeDef *hpcd = (PCD_HandleTypeDef*) pdev->pData;
 616:USB_Device/Target/usbd_conf.c **** 
 617:USB_Device/Target/usbd_conf.c ****   if((ep_addr & 0x80) == 0x80)
 618:USB_Device/Target/usbd_conf.c ****   {
 619:USB_Device/Target/usbd_conf.c ****     return hpcd->IN_ep[ep_addr & 0x7F].is_stall;
 620:USB_Device/Target/usbd_conf.c ****   }
 621:USB_Device/Target/usbd_conf.c ****   else
 622:USB_Device/Target/usbd_conf.c ****   {
 623:USB_Device/Target/usbd_conf.c ****     return hpcd->OUT_ep[ep_addr & 0x7F].is_stall;
 624:USB_Device/Target/usbd_conf.c ****   }
 625:USB_Device/Target/usbd_conf.c **** }
 626:USB_Device/Target/usbd_conf.c **** 
 627:USB_Device/Target/usbd_conf.c **** /**
 628:USB_Device/Target/usbd_conf.c ****   * @brief  Assigns a USB address to the device.
 629:USB_Device/Target/usbd_conf.c ****   * @param  pdev: Device handle
 630:USB_Device/Target/usbd_conf.c ****   * @param  dev_addr: Device address
 631:USB_Device/Target/usbd_conf.c ****   * @retval USBD status
 632:USB_Device/Target/usbd_conf.c ****   */
 633:USB_Device/Target/usbd_conf.c **** USBD_StatusTypeDef USBD_LL_SetUSBAddress(USBD_HandleTypeDef *pdev, uint8_t dev_addr)
 634:USB_Device/Target/usbd_conf.c **** {
 635:USB_Device/Target/usbd_conf.c ****   HAL_StatusTypeDef hal_status = HAL_OK;
 636:USB_Device/Target/usbd_conf.c ****   USBD_StatusTypeDef usb_status = USBD_OK;
 637:USB_Device/Target/usbd_conf.c **** 
 638:USB_Device/Target/usbd_conf.c ****   hal_status = HAL_PCD_SetAddress(pdev->pData, dev_addr);
 639:USB_Device/Target/usbd_conf.c **** 
 640:USB_Device/Target/usbd_conf.c ****   usb_status =  USBD_Get_USB_Status(hal_status);
 641:USB_Device/Target/usbd_conf.c **** 
 642:USB_Device/Target/usbd_conf.c ****   return usb_status;
 643:USB_Device/Target/usbd_conf.c **** }
 644:USB_Device/Target/usbd_conf.c **** 
 645:USB_Device/Target/usbd_conf.c **** /**
 646:USB_Device/Target/usbd_conf.c ****   * @brief  Transmits data over an endpoint.
 647:USB_Device/Target/usbd_conf.c ****   * @param  pdev: Device handle
 648:USB_Device/Target/usbd_conf.c ****   * @param  ep_addr: Endpoint number
 649:USB_Device/Target/usbd_conf.c ****   * @param  pbuf: Pointer to data to be sent
 650:USB_Device/Target/usbd_conf.c ****   * @param  size: Data size
 651:USB_Device/Target/usbd_conf.c ****   * @retval USBD status
 652:USB_Device/Target/usbd_conf.c ****   */
 653:USB_Device/Target/usbd_conf.c **** USBD_StatusTypeDef USBD_LL_Transmit(USBD_HandleTypeDef *pdev, uint8_t ep_addr, uint8_t *pbuf, uint3
 654:USB_Device/Target/usbd_conf.c **** {
 655:USB_Device/Target/usbd_conf.c ****   HAL_StatusTypeDef hal_status = HAL_OK;
 656:USB_Device/Target/usbd_conf.c ****   USBD_StatusTypeDef usb_status = USBD_OK;
ARM GAS  /tmp/ccrRyNXj.s 			page 13


 657:USB_Device/Target/usbd_conf.c **** 
 658:USB_Device/Target/usbd_conf.c ****   hal_status = HAL_PCD_EP_Transmit(pdev->pData, ep_addr, pbuf, size);
 659:USB_Device/Target/usbd_conf.c **** 
 660:USB_Device/Target/usbd_conf.c ****   usb_status =  USBD_Get_USB_Status(hal_status);
 661:USB_Device/Target/usbd_conf.c **** 
 662:USB_Device/Target/usbd_conf.c ****   return usb_status;
 663:USB_Device/Target/usbd_conf.c **** }
 664:USB_Device/Target/usbd_conf.c **** 
 665:USB_Device/Target/usbd_conf.c **** /**
 666:USB_Device/Target/usbd_conf.c ****   * @brief  Prepares an endpoint for reception.
 667:USB_Device/Target/usbd_conf.c ****   * @param  pdev: Device handle
 668:USB_Device/Target/usbd_conf.c ****   * @param  ep_addr: Endpoint number
 669:USB_Device/Target/usbd_conf.c ****   * @param  pbuf: Pointer to data to be received
 670:USB_Device/Target/usbd_conf.c ****   * @param  size: Data size
 671:USB_Device/Target/usbd_conf.c ****   * @retval USBD status
 672:USB_Device/Target/usbd_conf.c ****   */
 673:USB_Device/Target/usbd_conf.c **** USBD_StatusTypeDef USBD_LL_PrepareReceive(USBD_HandleTypeDef *pdev, uint8_t ep_addr, uint8_t *pbuf,
 674:USB_Device/Target/usbd_conf.c **** {
 675:USB_Device/Target/usbd_conf.c ****   HAL_StatusTypeDef hal_status = HAL_OK;
 676:USB_Device/Target/usbd_conf.c ****   USBD_StatusTypeDef usb_status = USBD_OK;
 677:USB_Device/Target/usbd_conf.c **** 
 678:USB_Device/Target/usbd_conf.c ****   hal_status = HAL_PCD_EP_Receive(pdev->pData, ep_addr, pbuf, size);
 679:USB_Device/Target/usbd_conf.c **** 
 680:USB_Device/Target/usbd_conf.c ****   usb_status =  USBD_Get_USB_Status(hal_status);
 681:USB_Device/Target/usbd_conf.c **** 
 682:USB_Device/Target/usbd_conf.c ****   return usb_status;
 683:USB_Device/Target/usbd_conf.c **** }
 684:USB_Device/Target/usbd_conf.c **** 
 685:USB_Device/Target/usbd_conf.c **** /**
 686:USB_Device/Target/usbd_conf.c ****   * @brief  Returns the last transferred packet size.
 687:USB_Device/Target/usbd_conf.c ****   * @param  pdev: Device handle
 688:USB_Device/Target/usbd_conf.c ****   * @param  ep_addr: Endpoint number
 689:USB_Device/Target/usbd_conf.c ****   * @retval Received Data Size
 690:USB_Device/Target/usbd_conf.c ****   */
 691:USB_Device/Target/usbd_conf.c **** uint32_t USBD_LL_GetRxDataSize(USBD_HandleTypeDef *pdev, uint8_t ep_addr)
 692:USB_Device/Target/usbd_conf.c **** {
 693:USB_Device/Target/usbd_conf.c ****   return HAL_PCD_EP_GetRxCount((PCD_HandleTypeDef*) pdev->pData, ep_addr);
 694:USB_Device/Target/usbd_conf.c **** }
 695:USB_Device/Target/usbd_conf.c **** 
 696:USB_Device/Target/usbd_conf.c **** /**
 697:USB_Device/Target/usbd_conf.c ****   * @brief  Delays routine for the USB Device Library.
 698:USB_Device/Target/usbd_conf.c ****   * @param  Delay: Delay in ms
 699:USB_Device/Target/usbd_conf.c ****   * @retval None
 700:USB_Device/Target/usbd_conf.c ****   */
 701:USB_Device/Target/usbd_conf.c **** void USBD_LL_Delay(uint32_t Delay)
 702:USB_Device/Target/usbd_conf.c **** {
 703:USB_Device/Target/usbd_conf.c ****   HAL_Delay(Delay);
 704:USB_Device/Target/usbd_conf.c **** }
 705:USB_Device/Target/usbd_conf.c **** 
 706:USB_Device/Target/usbd_conf.c **** /**
 707:USB_Device/Target/usbd_conf.c ****   * @brief  Static single allocation.
 708:USB_Device/Target/usbd_conf.c ****   * @param  size: Size of allocated memory
 709:USB_Device/Target/usbd_conf.c ****   * @retval None
 710:USB_Device/Target/usbd_conf.c ****   */
 711:USB_Device/Target/usbd_conf.c **** void *USBD_static_malloc(uint32_t size)
 712:USB_Device/Target/usbd_conf.c **** {
 713:USB_Device/Target/usbd_conf.c ****   UNUSED(size);
ARM GAS  /tmp/ccrRyNXj.s 			page 14


 714:USB_Device/Target/usbd_conf.c ****   static uint32_t mem[(sizeof(USBD_HID_HandleTypeDef)/4)+1];/* On 32-bit boundary */
 715:USB_Device/Target/usbd_conf.c ****   return mem;
 716:USB_Device/Target/usbd_conf.c **** }
 717:USB_Device/Target/usbd_conf.c **** 
 718:USB_Device/Target/usbd_conf.c **** /**
 719:USB_Device/Target/usbd_conf.c ****   * @brief  Dummy memory free
 720:USB_Device/Target/usbd_conf.c ****   * @param  p: Pointer to allocated  memory address
 721:USB_Device/Target/usbd_conf.c ****   * @retval None
 722:USB_Device/Target/usbd_conf.c ****   */
 723:USB_Device/Target/usbd_conf.c **** void USBD_static_free(void *p)
 724:USB_Device/Target/usbd_conf.c **** {
 725:USB_Device/Target/usbd_conf.c ****   UNUSED(p);
 726:USB_Device/Target/usbd_conf.c **** }
 727:USB_Device/Target/usbd_conf.c **** 
 728:USB_Device/Target/usbd_conf.c **** /* USER CODE BEGIN 5 */
 729:USB_Device/Target/usbd_conf.c **** /**
 730:USB_Device/Target/usbd_conf.c ****   * @brief  Configures system clock after wake-up from USB resume callBack:
 731:USB_Device/Target/usbd_conf.c ****   *         enable HSI, PLL and select PLL as system clock source.
 732:USB_Device/Target/usbd_conf.c ****   * @retval None
 733:USB_Device/Target/usbd_conf.c ****   */
 734:USB_Device/Target/usbd_conf.c **** static void SystemClockConfig_Resume(void)
 735:USB_Device/Target/usbd_conf.c **** {
 736:USB_Device/Target/usbd_conf.c ****   SystemClock_Config();
 737:USB_Device/Target/usbd_conf.c **** }
 738:USB_Device/Target/usbd_conf.c **** /* USER CODE END 5 */
 739:USB_Device/Target/usbd_conf.c **** 
 740:USB_Device/Target/usbd_conf.c **** /**
 741:USB_Device/Target/usbd_conf.c ****   * @brief  Returns the USB status depending on the HAL status:
 742:USB_Device/Target/usbd_conf.c ****   * @param  hal_status: HAL status
 743:USB_Device/Target/usbd_conf.c ****   * @retval USB status
 744:USB_Device/Target/usbd_conf.c ****   */
 745:USB_Device/Target/usbd_conf.c **** USBD_StatusTypeDef USBD_Get_USB_Status(HAL_StatusTypeDef hal_status)
 746:USB_Device/Target/usbd_conf.c **** {
  30              		.loc 1 746 1 view -0
  31              		.cfi_startproc
  32              		@ args = 0, pretend = 0, frame = 0
  33              		@ frame_needed = 0, uses_anonymous_args = 0
  34              		@ link register save eliminated.
 747:USB_Device/Target/usbd_conf.c ****   USBD_StatusTypeDef usb_status = USBD_OK;
  35              		.loc 1 747 3 view .LVU1
 748:USB_Device/Target/usbd_conf.c **** 
 749:USB_Device/Target/usbd_conf.c ****   switch (hal_status)
  36              		.loc 1 749 3 view .LVU2
  37 0000 0328     		cmp	r0, #3
  38 0002 05D8     		bhi	.L7
  39 0004 DFE800F0 		tbb	[pc, r0]
  40              	.L4:
  41 0008 05       		.byte	(.L2-.L4)/2
  42 0009 04       		.byte	(.L7-.L4)/2
  43 000a 02       		.byte	(.L5-.L4)/2
  44 000b 05       		.byte	(.L2-.L4)/2
  45              		.p2align 1
  46              	.L5:
 750:USB_Device/Target/usbd_conf.c ****   {
 751:USB_Device/Target/usbd_conf.c ****     case HAL_OK :
 752:USB_Device/Target/usbd_conf.c ****       usb_status = USBD_OK;
 753:USB_Device/Target/usbd_conf.c ****     break;
ARM GAS  /tmp/ccrRyNXj.s 			page 15


 754:USB_Device/Target/usbd_conf.c ****     case HAL_ERROR :
 755:USB_Device/Target/usbd_conf.c ****       usb_status = USBD_FAIL;
 756:USB_Device/Target/usbd_conf.c ****     break;
 757:USB_Device/Target/usbd_conf.c ****     case HAL_BUSY :
 758:USB_Device/Target/usbd_conf.c ****       usb_status = USBD_BUSY;
  47              		.loc 1 758 7 view .LVU3
  48              	.LVL1:
 759:USB_Device/Target/usbd_conf.c ****     break;
  49              		.loc 1 759 5 view .LVU4
 758:USB_Device/Target/usbd_conf.c ****     break;
  50              		.loc 1 758 18 is_stmt 0 view .LVU5
  51 000c 0120     		movs	r0, #1
  52              	.LVL2:
  53              		.loc 1 759 5 view .LVU6
  54 000e 7047     		bx	lr
  55              	.LVL3:
  56              	.L7:
 755:USB_Device/Target/usbd_conf.c ****     break;
  57              		.loc 1 755 18 view .LVU7
  58 0010 0320     		movs	r0, #3
  59              	.LVL4:
  60              	.L2:
 760:USB_Device/Target/usbd_conf.c ****     case HAL_TIMEOUT :
 761:USB_Device/Target/usbd_conf.c ****       usb_status = USBD_FAIL;
 762:USB_Device/Target/usbd_conf.c ****     break;
 763:USB_Device/Target/usbd_conf.c ****     default :
 764:USB_Device/Target/usbd_conf.c ****       usb_status = USBD_FAIL;
 765:USB_Device/Target/usbd_conf.c ****     break;
 766:USB_Device/Target/usbd_conf.c ****   }
 767:USB_Device/Target/usbd_conf.c ****   return usb_status;
  61              		.loc 1 767 3 is_stmt 1 view .LVU8
 768:USB_Device/Target/usbd_conf.c **** }
  62              		.loc 1 768 1 is_stmt 0 view .LVU9
  63 0012 7047     		bx	lr
  64              		.cfi_endproc
  65              	.LFE187:
  67              		.section	.text.PCD_ISOINIncompleteCallback,"ax",%progbits
  68              		.align	1
  69              		.syntax unified
  70              		.thumb
  71              		.thumb_func
  73              	PCD_ISOINIncompleteCallback:
  74              	.LVL5:
  75              	.LFB166:
 349:USB_Device/Target/usbd_conf.c ****   /* USER CODE BEGIN HAL_PCD_ISOINIncompleteCallback_PreTreatment */
  76              		.loc 1 349 1 is_stmt 1 view -0
  77              		.cfi_startproc
  78              		@ args = 0, pretend = 0, frame = 0
  79              		@ frame_needed = 0, uses_anonymous_args = 0
 349:USB_Device/Target/usbd_conf.c ****   /* USER CODE BEGIN HAL_PCD_ISOINIncompleteCallback_PreTreatment */
  80              		.loc 1 349 1 is_stmt 0 view .LVU11
  81 0000 08B5     		push	{r3, lr}
  82              	.LCFI0:
  83              		.cfi_def_cfa_offset 8
  84              		.cfi_offset 3, -8
  85              		.cfi_offset 14, -4
 353:USB_Device/Target/usbd_conf.c ****   /* USER CODE BEGIN HAL_PCD_ISOINIncompleteCallback_PostTreatment */
ARM GAS  /tmp/ccrRyNXj.s 			page 16


  86              		.loc 1 353 3 is_stmt 1 view .LVU12
  87 0002 D0F8F002 		ldr	r0, [r0, #752]
  88              	.LVL6:
 353:USB_Device/Target/usbd_conf.c ****   /* USER CODE BEGIN HAL_PCD_ISOINIncompleteCallback_PostTreatment */
  89              		.loc 1 353 3 is_stmt 0 view .LVU13
  90 0006 FFF7FEFF 		bl	USBD_LL_IsoINIncomplete
  91              	.LVL7:
 357:USB_Device/Target/usbd_conf.c **** 
  92              		.loc 1 357 1 view .LVU14
  93 000a 08BD     		pop	{r3, pc}
  94              		.cfi_endproc
  95              	.LFE166:
  97              		.section	.text.PCD_ISOOUTIncompleteCallback,"ax",%progbits
  98              		.align	1
  99              		.syntax unified
 100              		.thumb
 101              		.thumb_func
 103              	PCD_ISOOUTIncompleteCallback:
 104              	.LVL8:
 105              	.LFB165:
 328:USB_Device/Target/usbd_conf.c ****   /* USER CODE BEGIN HAL_PCD_ISOOUTIncompleteCallback_PreTreatment */
 106              		.loc 1 328 1 is_stmt 1 view -0
 107              		.cfi_startproc
 108              		@ args = 0, pretend = 0, frame = 0
 109              		@ frame_needed = 0, uses_anonymous_args = 0
 328:USB_Device/Target/usbd_conf.c ****   /* USER CODE BEGIN HAL_PCD_ISOOUTIncompleteCallback_PreTreatment */
 110              		.loc 1 328 1 is_stmt 0 view .LVU16
 111 0000 08B5     		push	{r3, lr}
 112              	.LCFI1:
 113              		.cfi_def_cfa_offset 8
 114              		.cfi_offset 3, -8
 115              		.cfi_offset 14, -4
 332:USB_Device/Target/usbd_conf.c ****   /* USER CODE BEGIN HAL_PCD_ISOOUTIncompleteCallback_PostTreatment */
 116              		.loc 1 332 3 is_stmt 1 view .LVU17
 117 0002 D0F8F002 		ldr	r0, [r0, #752]
 118              	.LVL9:
 332:USB_Device/Target/usbd_conf.c ****   /* USER CODE BEGIN HAL_PCD_ISOOUTIncompleteCallback_PostTreatment */
 119              		.loc 1 332 3 is_stmt 0 view .LVU18
 120 0006 FFF7FEFF 		bl	USBD_LL_IsoOUTIncomplete
 121              	.LVL10:
 336:USB_Device/Target/usbd_conf.c **** 
 122              		.loc 1 336 1 view .LVU19
 123 000a 08BD     		pop	{r3, pc}
 124              		.cfi_endproc
 125              	.LFE165:
 127              		.section	.text.PCD_DataInStageCallback,"ax",%progbits
 128              		.align	1
 129              		.syntax unified
 130              		.thumb
 131              		.thumb_func
 133              	PCD_DataInStageCallback:
 134              	.LVL11:
 135              	.LFB160:
 196:USB_Device/Target/usbd_conf.c ****   /* USER CODE BEGIN HAL_PCD_DataInStageCallback_PreTreatment */
 136              		.loc 1 196 1 is_stmt 1 view -0
 137              		.cfi_startproc
 138              		@ args = 0, pretend = 0, frame = 0
ARM GAS  /tmp/ccrRyNXj.s 			page 17


 139              		@ frame_needed = 0, uses_anonymous_args = 0
 196:USB_Device/Target/usbd_conf.c ****   /* USER CODE BEGIN HAL_PCD_DataInStageCallback_PreTreatment */
 140              		.loc 1 196 1 is_stmt 0 view .LVU21
 141 0000 08B5     		push	{r3, lr}
 142              	.LCFI2:
 143              		.cfi_def_cfa_offset 8
 144              		.cfi_offset 3, -8
 145              		.cfi_offset 14, -4
 200:USB_Device/Target/usbd_conf.c ****   /* USER CODE BEGIN HAL_PCD_DataInStageCallback_PostTreatment  */
 146              		.loc 1 200 3 is_stmt 1 view .LVU22
 147 0002 01EB8103 		add	r3, r1, r1, lsl #2
 148 0006 00EBC303 		add	r3, r0, r3, lsl #3
 149 000a DA6B     		ldr	r2, [r3, #60]
 150 000c D0F8F002 		ldr	r0, [r0, #752]
 151              	.LVL12:
 200:USB_Device/Target/usbd_conf.c ****   /* USER CODE BEGIN HAL_PCD_DataInStageCallback_PostTreatment  */
 152              		.loc 1 200 3 is_stmt 0 view .LVU23
 153 0010 FFF7FEFF 		bl	USBD_LL_DataInStage
 154              	.LVL13:
 204:USB_Device/Target/usbd_conf.c **** 
 155              		.loc 1 204 1 view .LVU24
 156 0014 08BD     		pop	{r3, pc}
 157              		.cfi_endproc
 158              	.LFE160:
 160              		.section	.text.PCD_DataOutStageCallback,"ax",%progbits
 161              		.align	1
 162              		.syntax unified
 163              		.thumb
 164              		.thumb_func
 166              	PCD_DataOutStageCallback:
 167              	.LVL14:
 168              	.LFB159:
 175:USB_Device/Target/usbd_conf.c ****   /* USER CODE BEGIN HAL_PCD_DataOutStageCallback_PreTreatment */
 169              		.loc 1 175 1 is_stmt 1 view -0
 170              		.cfi_startproc
 171              		@ args = 0, pretend = 0, frame = 0
 172              		@ frame_needed = 0, uses_anonymous_args = 0
 175:USB_Device/Target/usbd_conf.c ****   /* USER CODE BEGIN HAL_PCD_DataOutStageCallback_PreTreatment */
 173              		.loc 1 175 1 is_stmt 0 view .LVU26
 174 0000 08B5     		push	{r3, lr}
 175              	.LCFI3:
 176              		.cfi_def_cfa_offset 8
 177              		.cfi_offset 3, -8
 178              		.cfi_offset 14, -4
 179:USB_Device/Target/usbd_conf.c ****   /* USER CODE BEGIN HAL_PCD_DataOutStageCallback_PostTreatment */
 179              		.loc 1 179 3 is_stmt 1 view .LVU27
 180 0002 01EB8103 		add	r3, r1, r1, lsl #2
 181 0006 00EBC303 		add	r3, r0, r3, lsl #3
 182 000a D3F87C21 		ldr	r2, [r3, #380]
 183 000e D0F8F002 		ldr	r0, [r0, #752]
 184              	.LVL15:
 179:USB_Device/Target/usbd_conf.c ****   /* USER CODE BEGIN HAL_PCD_DataOutStageCallback_PostTreatment */
 185              		.loc 1 179 3 is_stmt 0 view .LVU28
 186 0012 FFF7FEFF 		bl	USBD_LL_DataOutStage
 187              	.LVL16:
 183:USB_Device/Target/usbd_conf.c **** 
 188              		.loc 1 183 1 view .LVU29
ARM GAS  /tmp/ccrRyNXj.s 			page 18


 189 0016 08BD     		pop	{r3, pc}
 190              		.cfi_endproc
 191              	.LFE159:
 193              		.section	.text.PCD_DisconnectCallback,"ax",%progbits
 194              		.align	1
 195              		.syntax unified
 196              		.thumb
 197              		.thumb_func
 199              	PCD_DisconnectCallback:
 200              	.LVL17:
 201              	.LFB168:
 389:USB_Device/Target/usbd_conf.c ****   /* USER CODE BEGIN HAL_PCD_DisconnectCallback_PreTreatment */
 202              		.loc 1 389 1 is_stmt 1 view -0
 203              		.cfi_startproc
 204              		@ args = 0, pretend = 0, frame = 0
 205              		@ frame_needed = 0, uses_anonymous_args = 0
 389:USB_Device/Target/usbd_conf.c ****   /* USER CODE BEGIN HAL_PCD_DisconnectCallback_PreTreatment */
 206              		.loc 1 389 1 is_stmt 0 view .LVU31
 207 0000 08B5     		push	{r3, lr}
 208              	.LCFI4:
 209              		.cfi_def_cfa_offset 8
 210              		.cfi_offset 3, -8
 211              		.cfi_offset 14, -4
 393:USB_Device/Target/usbd_conf.c ****   /* USER CODE BEGIN HAL_PCD_DisconnectCallback_PostTreatment */
 212              		.loc 1 393 3 is_stmt 1 view .LVU32
 213 0002 D0F8F002 		ldr	r0, [r0, #752]
 214              	.LVL18:
 393:USB_Device/Target/usbd_conf.c ****   /* USER CODE BEGIN HAL_PCD_DisconnectCallback_PostTreatment */
 215              		.loc 1 393 3 is_stmt 0 view .LVU33
 216 0006 FFF7FEFF 		bl	USBD_LL_DevDisconnected
 217              	.LVL19:
 397:USB_Device/Target/usbd_conf.c **** 
 218              		.loc 1 397 1 view .LVU34
 219 000a 08BD     		pop	{r3, pc}
 220              		.cfi_endproc
 221              	.LFE168:
 223              		.section	.text.PCD_ConnectCallback,"ax",%progbits
 224              		.align	1
 225              		.syntax unified
 226              		.thumb
 227              		.thumb_func
 229              	PCD_ConnectCallback:
 230              	.LVL20:
 231              	.LFB167:
 369:USB_Device/Target/usbd_conf.c ****   /* USER CODE BEGIN HAL_PCD_ConnectCallback_PreTreatment */
 232              		.loc 1 369 1 is_stmt 1 view -0
 233              		.cfi_startproc
 234              		@ args = 0, pretend = 0, frame = 0
 235              		@ frame_needed = 0, uses_anonymous_args = 0
 369:USB_Device/Target/usbd_conf.c ****   /* USER CODE BEGIN HAL_PCD_ConnectCallback_PreTreatment */
 236              		.loc 1 369 1 is_stmt 0 view .LVU36
 237 0000 08B5     		push	{r3, lr}
 238              	.LCFI5:
 239              		.cfi_def_cfa_offset 8
 240              		.cfi_offset 3, -8
 241              		.cfi_offset 14, -4
 373:USB_Device/Target/usbd_conf.c ****   /* USER CODE BEGIN HAL_PCD_ConnectCallback_PostTreatment */
ARM GAS  /tmp/ccrRyNXj.s 			page 19


 242              		.loc 1 373 3 is_stmt 1 view .LVU37
 243 0002 D0F8F002 		ldr	r0, [r0, #752]
 244              	.LVL21:
 373:USB_Device/Target/usbd_conf.c ****   /* USER CODE BEGIN HAL_PCD_ConnectCallback_PostTreatment */
 245              		.loc 1 373 3 is_stmt 0 view .LVU38
 246 0006 FFF7FEFF 		bl	USBD_LL_DevConnected
 247              	.LVL22:
 377:USB_Device/Target/usbd_conf.c **** 
 248              		.loc 1 377 1 view .LVU39
 249 000a 08BD     		pop	{r3, pc}
 250              		.cfi_endproc
 251              	.LFE167:
 253              		.section	.text.SystemClockConfig_Resume,"ax",%progbits
 254              		.align	1
 255              		.syntax unified
 256              		.thumb
 257              		.thumb_func
 259              	SystemClockConfig_Resume:
 260              	.LFB186:
 735:USB_Device/Target/usbd_conf.c ****   SystemClock_Config();
 261              		.loc 1 735 1 is_stmt 1 view -0
 262              		.cfi_startproc
 263              		@ args = 0, pretend = 0, frame = 0
 264              		@ frame_needed = 0, uses_anonymous_args = 0
 265 0000 08B5     		push	{r3, lr}
 266              	.LCFI6:
 267              		.cfi_def_cfa_offset 8
 268              		.cfi_offset 3, -8
 269              		.cfi_offset 14, -4
 736:USB_Device/Target/usbd_conf.c **** }
 270              		.loc 1 736 3 view .LVU41
 271 0002 FFF7FEFF 		bl	SystemClock_Config
 272              	.LVL23:
 737:USB_Device/Target/usbd_conf.c **** /* USER CODE END 5 */
 273              		.loc 1 737 1 is_stmt 0 view .LVU42
 274 0006 08BD     		pop	{r3, pc}
 275              		.cfi_endproc
 276              	.LFE186:
 278              		.section	.text.PCD_ResumeCallback,"ax",%progbits
 279              		.align	1
 280              		.syntax unified
 281              		.thumb
 282              		.thumb_func
 284              	PCD_ResumeCallback:
 285              	.LVL24:
 286              	.LFB164:
 297:USB_Device/Target/usbd_conf.c ****   /* USER CODE BEGIN HAL_PCD_ResumeCallback_PreTreatment */
 287              		.loc 1 297 1 is_stmt 1 view -0
 288              		.cfi_startproc
 289              		@ args = 0, pretend = 0, frame = 0
 290              		@ frame_needed = 0, uses_anonymous_args = 0
 297:USB_Device/Target/usbd_conf.c ****   /* USER CODE BEGIN HAL_PCD_ResumeCallback_PreTreatment */
 291              		.loc 1 297 1 is_stmt 0 view .LVU44
 292 0000 10B5     		push	{r4, lr}
 293              	.LCFI7:
 294              		.cfi_def_cfa_offset 8
 295              		.cfi_offset 4, -8
ARM GAS  /tmp/ccrRyNXj.s 			page 20


 296              		.cfi_offset 14, -4
 297 0002 0446     		mov	r4, r0
 303:USB_Device/Target/usbd_conf.c ****   {
 298              		.loc 1 303 3 is_stmt 1 view .LVU45
 303:USB_Device/Target/usbd_conf.c ****   {
 299              		.loc 1 303 17 is_stmt 0 view .LVU46
 300 0004 8369     		ldr	r3, [r0, #24]
 303:USB_Device/Target/usbd_conf.c ****   {
 301              		.loc 1 303 6 view .LVU47
 302 0006 23B9     		cbnz	r3, .L25
 303              	.LVL25:
 304              	.L23:
 311:USB_Device/Target/usbd_conf.c ****   /* USER CODE BEGIN HAL_PCD_ResumeCallback_PostTreatment */
 305              		.loc 1 311 3 is_stmt 1 view .LVU48
 306 0008 D4F8F002 		ldr	r0, [r4, #752]
 307 000c FFF7FEFF 		bl	USBD_LL_Resume
 308              	.LVL26:
 315:USB_Device/Target/usbd_conf.c **** 
 309              		.loc 1 315 1 is_stmt 0 view .LVU49
 310 0010 10BD     		pop	{r4, pc}
 311              	.LVL27:
 312              	.L25:
 306:USB_Device/Target/usbd_conf.c ****     SystemClockConfig_Resume();
 313              		.loc 1 306 5 is_stmt 1 view .LVU50
 306:USB_Device/Target/usbd_conf.c ****     SystemClockConfig_Resume();
 314              		.loc 1 306 8 is_stmt 0 view .LVU51
 315 0012 044A     		ldr	r2, .L26
 316 0014 1369     		ldr	r3, [r2, #16]
 306:USB_Device/Target/usbd_conf.c ****     SystemClockConfig_Resume();
 317              		.loc 1 306 14 view .LVU52
 318 0016 23F00603 		bic	r3, r3, #6
 319 001a 1361     		str	r3, [r2, #16]
 307:USB_Device/Target/usbd_conf.c ****   }
 320              		.loc 1 307 5 is_stmt 1 view .LVU53
 321 001c FFF7FEFF 		bl	SystemClockConfig_Resume
 322              	.LVL28:
 307:USB_Device/Target/usbd_conf.c ****   }
 323              		.loc 1 307 5 is_stmt 0 view .LVU54
 324 0020 F2E7     		b	.L23
 325              	.L27:
 326 0022 00BF     		.align	2
 327              	.L26:
 328 0024 00ED00E0 		.word	-536810240
 329              		.cfi_endproc
 330              	.LFE164:
 332              		.section	.text.PCD_SuspendCallback,"ax",%progbits
 333              		.align	1
 334              		.syntax unified
 335              		.thumb
 336              		.thumb_func
 338              	PCD_SuspendCallback:
 339              	.LVL29:
 340              	.LFB163:
 267:USB_Device/Target/usbd_conf.c ****   /* USER CODE BEGIN HAL_PCD_SuspendCallback_PreTreatment */
 341              		.loc 1 267 1 is_stmt 1 view -0
 342              		.cfi_startproc
 343              		@ args = 0, pretend = 0, frame = 0
ARM GAS  /tmp/ccrRyNXj.s 			page 21


 344              		@ frame_needed = 0, uses_anonymous_args = 0
 267:USB_Device/Target/usbd_conf.c ****   /* USER CODE BEGIN HAL_PCD_SuspendCallback_PreTreatment */
 345              		.loc 1 267 1 is_stmt 0 view .LVU56
 346 0000 10B5     		push	{r4, lr}
 347              	.LCFI8:
 348              		.cfi_def_cfa_offset 8
 349              		.cfi_offset 4, -8
 350              		.cfi_offset 14, -4
 351 0002 0446     		mov	r4, r0
 272:USB_Device/Target/usbd_conf.c ****   /* Enter in STOP mode. */
 352              		.loc 1 272 3 is_stmt 1 view .LVU57
 353 0004 D0F8F002 		ldr	r0, [r0, #752]
 354              	.LVL30:
 272:USB_Device/Target/usbd_conf.c ****   /* Enter in STOP mode. */
 355              		.loc 1 272 3 is_stmt 0 view .LVU58
 356 0008 FFF7FEFF 		bl	USBD_LL_Suspend
 357              	.LVL31:
 275:USB_Device/Target/usbd_conf.c ****   {
 358              		.loc 1 275 3 is_stmt 1 view .LVU59
 275:USB_Device/Target/usbd_conf.c ****   {
 359              		.loc 1 275 17 is_stmt 0 view .LVU60
 360 000c A369     		ldr	r3, [r4, #24]
 275:USB_Device/Target/usbd_conf.c ****   {
 361              		.loc 1 275 6 view .LVU61
 362 000e 23B1     		cbz	r3, .L28
 278:USB_Device/Target/usbd_conf.c ****   }
 363              		.loc 1 278 5 is_stmt 1 view .LVU62
 278:USB_Device/Target/usbd_conf.c ****   }
 364              		.loc 1 278 8 is_stmt 0 view .LVU63
 365 0010 024A     		ldr	r2, .L31
 366 0012 1369     		ldr	r3, [r2, #16]
 278:USB_Device/Target/usbd_conf.c ****   }
 367              		.loc 1 278 14 view .LVU64
 368 0014 43F00603 		orr	r3, r3, #6
 369 0018 1361     		str	r3, [r2, #16]
 370              	.L28:
 284:USB_Device/Target/usbd_conf.c **** 
 371              		.loc 1 284 1 view .LVU65
 372 001a 10BD     		pop	{r4, pc}
 373              	.LVL32:
 374              	.L32:
 284:USB_Device/Target/usbd_conf.c **** 
 375              		.loc 1 284 1 view .LVU66
 376              		.align	2
 377              	.L31:
 378 001c 00ED00E0 		.word	-536810240
 379              		.cfi_endproc
 380              	.LFE163:
 382              		.section	.text.PCD_ResetCallback,"ax",%progbits
 383              		.align	1
 384              		.syntax unified
 385              		.thumb
 386              		.thumb_func
 388              	PCD_ResetCallback:
 389              	.LVL33:
 390              	.LFB162:
 236:USB_Device/Target/usbd_conf.c ****   /* USER CODE BEGIN HAL_PCD_ResetCallback_PreTreatment */
ARM GAS  /tmp/ccrRyNXj.s 			page 22


 391              		.loc 1 236 1 is_stmt 1 view -0
 392              		.cfi_startproc
 393              		@ args = 0, pretend = 0, frame = 0
 394              		@ frame_needed = 0, uses_anonymous_args = 0
 236:USB_Device/Target/usbd_conf.c ****   /* USER CODE BEGIN HAL_PCD_ResetCallback_PreTreatment */
 395              		.loc 1 236 1 is_stmt 0 view .LVU68
 396 0000 10B5     		push	{r4, lr}
 397              	.LCFI9:
 398              		.cfi_def_cfa_offset 8
 399              		.cfi_offset 4, -8
 400              		.cfi_offset 14, -4
 401 0002 0446     		mov	r4, r0
 240:USB_Device/Target/usbd_conf.c **** 
 402              		.loc 1 240 3 is_stmt 1 view .LVU69
 403              	.LVL34:
 242:USB_Device/Target/usbd_conf.c ****   {
 404              		.loc 1 242 3 view .LVU70
 242:USB_Device/Target/usbd_conf.c ****   {
 405              		.loc 1 242 18 is_stmt 0 view .LVU71
 406 0004 8368     		ldr	r3, [r0, #8]
 242:USB_Device/Target/usbd_conf.c ****   {
 407              		.loc 1 242 6 view .LVU72
 408 0006 022B     		cmp	r3, #2
 409 0008 09D1     		bne	.L36
 410              	.LVL35:
 411              	.L34:
 247:USB_Device/Target/usbd_conf.c **** 
 412              		.loc 1 247 3 is_stmt 1 view .LVU73
 413 000a 0121     		movs	r1, #1
 414 000c D4F8F002 		ldr	r0, [r4, #752]
 415 0010 FFF7FEFF 		bl	USBD_LL_SetSpeed
 416              	.LVL36:
 250:USB_Device/Target/usbd_conf.c ****   /* USER CODE BEGIN HAL_PCD_ResetCallback_PostTreatment */
 417              		.loc 1 250 3 view .LVU74
 418 0014 D4F8F002 		ldr	r0, [r4, #752]
 419 0018 FFF7FEFF 		bl	USBD_LL_Reset
 420              	.LVL37:
 254:USB_Device/Target/usbd_conf.c **** 
 421              		.loc 1 254 1 is_stmt 0 view .LVU75
 422 001c 10BD     		pop	{r4, pc}
 423              	.LVL38:
 424              	.L36:
 244:USB_Device/Target/usbd_conf.c ****   }
 425              		.loc 1 244 5 is_stmt 1 view .LVU76
 426 001e FFF7FEFF 		bl	Error_Handler
 427              	.LVL39:
 244:USB_Device/Target/usbd_conf.c ****   }
 428              		.loc 1 244 5 is_stmt 0 view .LVU77
 429 0022 F2E7     		b	.L34
 430              		.cfi_endproc
 431              	.LFE162:
 433              		.section	.text.PCD_SetupStageCallback,"ax",%progbits
 434              		.align	1
 435              		.syntax unified
 436              		.thumb
 437              		.thumb_func
 439              	PCD_SetupStageCallback:
ARM GAS  /tmp/ccrRyNXj.s 			page 23


 440              	.LVL40:
 441              	.LFB158:
 154:USB_Device/Target/usbd_conf.c ****   /* USER CODE BEGIN HAL_PCD_SetupStageCallback_PreTreatment */
 442              		.loc 1 154 1 is_stmt 1 view -0
 443              		.cfi_startproc
 444              		@ args = 0, pretend = 0, frame = 0
 445              		@ frame_needed = 0, uses_anonymous_args = 0
 154:USB_Device/Target/usbd_conf.c ****   /* USER CODE BEGIN HAL_PCD_SetupStageCallback_PreTreatment */
 446              		.loc 1 154 1 is_stmt 0 view .LVU79
 447 0000 08B5     		push	{r3, lr}
 448              	.LCFI10:
 449              		.cfi_def_cfa_offset 8
 450              		.cfi_offset 3, -8
 451              		.cfi_offset 14, -4
 158:USB_Device/Target/usbd_conf.c ****   /* USER CODE BEGIN HAL_PCD_SetupStageCallback_PostTreatment */
 452              		.loc 1 158 3 is_stmt 1 view .LVU80
 453 0002 00F52C71 		add	r1, r0, #688
 454 0006 D0F8F002 		ldr	r0, [r0, #752]
 455              	.LVL41:
 158:USB_Device/Target/usbd_conf.c ****   /* USER CODE BEGIN HAL_PCD_SetupStageCallback_PostTreatment */
 456              		.loc 1 158 3 is_stmt 0 view .LVU81
 457 000a FFF7FEFF 		bl	USBD_LL_SetupStage
 458              	.LVL42:
 162:USB_Device/Target/usbd_conf.c **** 
 459              		.loc 1 162 1 view .LVU82
 460 000e 08BD     		pop	{r3, pc}
 461              		.cfi_endproc
 462              	.LFE158:
 464              		.section	.text.PCD_SOFCallback,"ax",%progbits
 465              		.align	1
 466              		.syntax unified
 467              		.thumb
 468              		.thumb_func
 470              	PCD_SOFCallback:
 471              	.LVL43:
 472              	.LFB161:
 216:USB_Device/Target/usbd_conf.c ****   /* USER CODE BEGIN HAL_PCD_SOFCallback_PreTreatment */
 473              		.loc 1 216 1 is_stmt 1 view -0
 474              		.cfi_startproc
 475              		@ args = 0, pretend = 0, frame = 0
 476              		@ frame_needed = 0, uses_anonymous_args = 0
 216:USB_Device/Target/usbd_conf.c ****   /* USER CODE BEGIN HAL_PCD_SOFCallback_PreTreatment */
 477              		.loc 1 216 1 is_stmt 0 view .LVU84
 478 0000 08B5     		push	{r3, lr}
 479              	.LCFI11:
 480              		.cfi_def_cfa_offset 8
 481              		.cfi_offset 3, -8
 482              		.cfi_offset 14, -4
 220:USB_Device/Target/usbd_conf.c ****   /* USER CODE BEGIN HAL_PCD_SOFCallback_PostTreatment */
 483              		.loc 1 220 3 is_stmt 1 view .LVU85
 484 0002 D0F8F002 		ldr	r0, [r0, #752]
 485              	.LVL44:
 220:USB_Device/Target/usbd_conf.c ****   /* USER CODE BEGIN HAL_PCD_SOFCallback_PostTreatment */
 486              		.loc 1 220 3 is_stmt 0 view .LVU86
 487 0006 FFF7FEFF 		bl	USBD_LL_SOF
 488              	.LVL45:
 224:USB_Device/Target/usbd_conf.c **** 
ARM GAS  /tmp/ccrRyNXj.s 			page 24


 489              		.loc 1 224 1 view .LVU87
 490 000a 08BD     		pop	{r3, pc}
 491              		.cfi_endproc
 492              	.LFE161:
 494              		.section	.text.HAL_PCD_MspInit,"ax",%progbits
 495              		.align	1
 496              		.global	HAL_PCD_MspInit
 497              		.syntax unified
 498              		.thumb
 499              		.thumb_func
 501              	HAL_PCD_MspInit:
 502              	.LVL46:
 503              	.LFB156:
  70:USB_Device/Target/usbd_conf.c ****   GPIO_InitTypeDef GPIO_InitStruct = {0};
 504              		.loc 1 70 1 is_stmt 1 view -0
 505              		.cfi_startproc
 506              		@ args = 0, pretend = 0, frame = 176
 507              		@ frame_needed = 0, uses_anonymous_args = 0
  70:USB_Device/Target/usbd_conf.c ****   GPIO_InitTypeDef GPIO_InitStruct = {0};
 508              		.loc 1 70 1 is_stmt 0 view .LVU89
 509 0000 30B5     		push	{r4, r5, lr}
 510              	.LCFI12:
 511              		.cfi_def_cfa_offset 12
 512              		.cfi_offset 4, -12
 513              		.cfi_offset 5, -8
 514              		.cfi_offset 14, -4
 515 0002 ADB0     		sub	sp, sp, #180
 516              	.LCFI13:
 517              		.cfi_def_cfa_offset 192
 518 0004 0446     		mov	r4, r0
  71:USB_Device/Target/usbd_conf.c ****   RCC_PeriphCLKInitTypeDef PeriphClkInit = {0};
 519              		.loc 1 71 3 is_stmt 1 view .LVU90
  71:USB_Device/Target/usbd_conf.c ****   RCC_PeriphCLKInitTypeDef PeriphClkInit = {0};
 520              		.loc 1 71 20 is_stmt 0 view .LVU91
 521 0006 0021     		movs	r1, #0
 522 0008 2791     		str	r1, [sp, #156]
 523 000a 2891     		str	r1, [sp, #160]
 524 000c 2991     		str	r1, [sp, #164]
 525 000e 2A91     		str	r1, [sp, #168]
 526 0010 2B91     		str	r1, [sp, #172]
  72:USB_Device/Target/usbd_conf.c ****   if(pcdHandle->Instance==USB)
 527              		.loc 1 72 3 is_stmt 1 view .LVU92
  72:USB_Device/Target/usbd_conf.c ****   if(pcdHandle->Instance==USB)
 528              		.loc 1 72 28 is_stmt 0 view .LVU93
 529 0012 9422     		movs	r2, #148
 530 0014 02A8     		add	r0, sp, #8
 531              	.LVL47:
  72:USB_Device/Target/usbd_conf.c ****   if(pcdHandle->Instance==USB)
 532              		.loc 1 72 28 view .LVU94
 533 0016 FFF7FEFF 		bl	memset
 534              	.LVL48:
  73:USB_Device/Target/usbd_conf.c ****   {
 535              		.loc 1 73 3 is_stmt 1 view .LVU95
  73:USB_Device/Target/usbd_conf.c ****   {
 536              		.loc 1 73 15 is_stmt 0 view .LVU96
 537 001a 2268     		ldr	r2, [r4]
  73:USB_Device/Target/usbd_conf.c ****   {
ARM GAS  /tmp/ccrRyNXj.s 			page 25


 538              		.loc 1 73 5 view .LVU97
 539 001c 244B     		ldr	r3, .L47
 540 001e 9A42     		cmp	r2, r3
 541 0020 01D0     		beq	.L45
 542              	.LVL49:
 543              	.L41:
 117:USB_Device/Target/usbd_conf.c **** 
 544              		.loc 1 117 1 view .LVU98
 545 0022 2DB0     		add	sp, sp, #180
 546              	.LCFI14:
 547              		.cfi_remember_state
 548              		.cfi_def_cfa_offset 12
 549              		@ sp needed
 550 0024 30BD     		pop	{r4, r5, pc}
 551              	.LVL50:
 552              	.L45:
 553              	.LCFI15:
 554              		.cfi_restore_state
  81:USB_Device/Target/usbd_conf.c ****     PeriphClkInit.UsbClockSelection = RCC_USBCLKSOURCE_PLLSAI1;
 555              		.loc 1 81 5 is_stmt 1 view .LVU99
  81:USB_Device/Target/usbd_conf.c ****     PeriphClkInit.UsbClockSelection = RCC_USBCLKSOURCE_PLLSAI1;
 556              		.loc 1 81 40 is_stmt 0 view .LVU100
 557 0026 4FF40053 		mov	r3, #8192
 558 002a 0293     		str	r3, [sp, #8]
  82:USB_Device/Target/usbd_conf.c ****     PeriphClkInit.PLLSAI1.PLLSAI1Source = RCC_PLLSAI1SOURCE_HSE;
 559              		.loc 1 82 5 is_stmt 1 view .LVU101
  82:USB_Device/Target/usbd_conf.c ****     PeriphClkInit.PLLSAI1.PLLSAI1Source = RCC_PLLSAI1SOURCE_HSE;
 560              		.loc 1 82 37 is_stmt 0 view .LVU102
 561 002c 4FF08063 		mov	r3, #67108864
 562 0030 1F93     		str	r3, [sp, #124]
  83:USB_Device/Target/usbd_conf.c ****     PeriphClkInit.PLLSAI1.PLLSAI1M = 4;
 563              		.loc 1 83 5 is_stmt 1 view .LVU103
  83:USB_Device/Target/usbd_conf.c ****     PeriphClkInit.PLLSAI1.PLLSAI1M = 4;
 564              		.loc 1 83 41 is_stmt 0 view .LVU104
 565 0032 0323     		movs	r3, #3
 566 0034 0393     		str	r3, [sp, #12]
  84:USB_Device/Target/usbd_conf.c ****     PeriphClkInit.PLLSAI1.PLLSAI1N = 12;
 567              		.loc 1 84 5 is_stmt 1 view .LVU105
  84:USB_Device/Target/usbd_conf.c ****     PeriphClkInit.PLLSAI1.PLLSAI1N = 12;
 568              		.loc 1 84 36 is_stmt 0 view .LVU106
 569 0036 0423     		movs	r3, #4
 570 0038 0493     		str	r3, [sp, #16]
  85:USB_Device/Target/usbd_conf.c ****     PeriphClkInit.PLLSAI1.PLLSAI1P = RCC_PLLP_DIV7;
 571              		.loc 1 85 5 is_stmt 1 view .LVU107
  85:USB_Device/Target/usbd_conf.c ****     PeriphClkInit.PLLSAI1.PLLSAI1P = RCC_PLLP_DIV7;
 572              		.loc 1 85 36 is_stmt 0 view .LVU108
 573 003a 0C23     		movs	r3, #12
 574 003c 0593     		str	r3, [sp, #20]
  86:USB_Device/Target/usbd_conf.c ****     PeriphClkInit.PLLSAI1.PLLSAI1Q = RCC_PLLQ_DIV2;
 575              		.loc 1 86 5 is_stmt 1 view .LVU109
  86:USB_Device/Target/usbd_conf.c ****     PeriphClkInit.PLLSAI1.PLLSAI1Q = RCC_PLLQ_DIV2;
 576              		.loc 1 86 36 is_stmt 0 view .LVU110
 577 003e 0723     		movs	r3, #7
 578 0040 0693     		str	r3, [sp, #24]
  87:USB_Device/Target/usbd_conf.c ****     PeriphClkInit.PLLSAI1.PLLSAI1R = RCC_PLLR_DIV2;
 579              		.loc 1 87 5 is_stmt 1 view .LVU111
  87:USB_Device/Target/usbd_conf.c ****     PeriphClkInit.PLLSAI1.PLLSAI1R = RCC_PLLR_DIV2;
ARM GAS  /tmp/ccrRyNXj.s 			page 26


 580              		.loc 1 87 36 is_stmt 0 view .LVU112
 581 0042 0223     		movs	r3, #2
 582 0044 0793     		str	r3, [sp, #28]
  88:USB_Device/Target/usbd_conf.c ****     PeriphClkInit.PLLSAI1.PLLSAI1ClockOut = RCC_PLLSAI1_48M2CLK;
 583              		.loc 1 88 5 is_stmt 1 view .LVU113
  88:USB_Device/Target/usbd_conf.c ****     PeriphClkInit.PLLSAI1.PLLSAI1ClockOut = RCC_PLLSAI1_48M2CLK;
 584              		.loc 1 88 36 is_stmt 0 view .LVU114
 585 0046 0893     		str	r3, [sp, #32]
  89:USB_Device/Target/usbd_conf.c ****     if (HAL_RCCEx_PeriphCLKConfig(&PeriphClkInit) != HAL_OK)
 586              		.loc 1 89 5 is_stmt 1 view .LVU115
  89:USB_Device/Target/usbd_conf.c ****     if (HAL_RCCEx_PeriphCLKConfig(&PeriphClkInit) != HAL_OK)
 587              		.loc 1 89 43 is_stmt 0 view .LVU116
 588 0048 4FF48013 		mov	r3, #1048576
 589 004c 0993     		str	r3, [sp, #36]
  90:USB_Device/Target/usbd_conf.c ****     {
 590              		.loc 1 90 5 is_stmt 1 view .LVU117
  90:USB_Device/Target/usbd_conf.c ****     {
 591              		.loc 1 90 9 is_stmt 0 view .LVU118
 592 004e 02A8     		add	r0, sp, #8
 593 0050 FFF7FEFF 		bl	HAL_RCCEx_PeriphCLKConfig
 594              	.LVL51:
  90:USB_Device/Target/usbd_conf.c ****     {
 595              		.loc 1 90 8 view .LVU119
 596 0054 48BB     		cbnz	r0, .L46
 597              	.L43:
  95:USB_Device/Target/usbd_conf.c ****     /**USB GPIO Configuration
 598              		.loc 1 95 5 is_stmt 1 view .LVU120
 599              	.LBB2:
  95:USB_Device/Target/usbd_conf.c ****     /**USB GPIO Configuration
 600              		.loc 1 95 5 view .LVU121
  95:USB_Device/Target/usbd_conf.c ****     /**USB GPIO Configuration
 601              		.loc 1 95 5 view .LVU122
 602 0056 174C     		ldr	r4, .L47+4
 603              	.LVL52:
  95:USB_Device/Target/usbd_conf.c ****     /**USB GPIO Configuration
 604              		.loc 1 95 5 is_stmt 0 view .LVU123
 605 0058 E36C     		ldr	r3, [r4, #76]
 606 005a 43F00103 		orr	r3, r3, #1
 607 005e E364     		str	r3, [r4, #76]
  95:USB_Device/Target/usbd_conf.c ****     /**USB GPIO Configuration
 608              		.loc 1 95 5 is_stmt 1 view .LVU124
 609 0060 E36C     		ldr	r3, [r4, #76]
 610 0062 03F00103 		and	r3, r3, #1
 611 0066 0093     		str	r3, [sp]
  95:USB_Device/Target/usbd_conf.c ****     /**USB GPIO Configuration
 612              		.loc 1 95 5 view .LVU125
 613 0068 009B     		ldr	r3, [sp]
 614              	.LBE2:
  95:USB_Device/Target/usbd_conf.c ****     /**USB GPIO Configuration
 615              		.loc 1 95 5 view .LVU126
 100:USB_Device/Target/usbd_conf.c ****     GPIO_InitStruct.Mode = GPIO_MODE_AF_PP;
 616              		.loc 1 100 5 view .LVU127
 100:USB_Device/Target/usbd_conf.c ****     GPIO_InitStruct.Mode = GPIO_MODE_AF_PP;
 617              		.loc 1 100 25 is_stmt 0 view .LVU128
 618 006a 4FF4C053 		mov	r3, #6144
 619 006e 2793     		str	r3, [sp, #156]
 101:USB_Device/Target/usbd_conf.c ****     GPIO_InitStruct.Pull = GPIO_NOPULL;
ARM GAS  /tmp/ccrRyNXj.s 			page 27


 620              		.loc 1 101 5 is_stmt 1 view .LVU129
 101:USB_Device/Target/usbd_conf.c ****     GPIO_InitStruct.Pull = GPIO_NOPULL;
 621              		.loc 1 101 26 is_stmt 0 view .LVU130
 622 0070 0223     		movs	r3, #2
 623 0072 2893     		str	r3, [sp, #160]
 102:USB_Device/Target/usbd_conf.c ****     GPIO_InitStruct.Speed = GPIO_SPEED_FREQ_LOW;
 624              		.loc 1 102 5 is_stmt 1 view .LVU131
 102:USB_Device/Target/usbd_conf.c ****     GPIO_InitStruct.Speed = GPIO_SPEED_FREQ_LOW;
 625              		.loc 1 102 26 is_stmt 0 view .LVU132
 626 0074 0025     		movs	r5, #0
 627 0076 2995     		str	r5, [sp, #164]
 103:USB_Device/Target/usbd_conf.c ****     GPIO_InitStruct.Alternate = GPIO_AF10_USB;
 628              		.loc 1 103 5 is_stmt 1 view .LVU133
 103:USB_Device/Target/usbd_conf.c ****     GPIO_InitStruct.Alternate = GPIO_AF10_USB;
 629              		.loc 1 103 27 is_stmt 0 view .LVU134
 630 0078 2A95     		str	r5, [sp, #168]
 104:USB_Device/Target/usbd_conf.c ****     HAL_GPIO_Init(GPIOA, &GPIO_InitStruct);
 631              		.loc 1 104 5 is_stmt 1 view .LVU135
 104:USB_Device/Target/usbd_conf.c ****     HAL_GPIO_Init(GPIOA, &GPIO_InitStruct);
 632              		.loc 1 104 31 is_stmt 0 view .LVU136
 633 007a 0A23     		movs	r3, #10
 634 007c 2B93     		str	r3, [sp, #172]
 105:USB_Device/Target/usbd_conf.c **** 
 635              		.loc 1 105 5 is_stmt 1 view .LVU137
 636 007e 27A9     		add	r1, sp, #156
 637 0080 0D48     		ldr	r0, .L47+8
 638 0082 FFF7FEFF 		bl	HAL_GPIO_Init
 639              	.LVL53:
 108:USB_Device/Target/usbd_conf.c **** 
 640              		.loc 1 108 5 view .LVU138
 641              	.LBB3:
 108:USB_Device/Target/usbd_conf.c **** 
 642              		.loc 1 108 5 view .LVU139
 108:USB_Device/Target/usbd_conf.c **** 
 643              		.loc 1 108 5 view .LVU140
 644 0086 E36D     		ldr	r3, [r4, #92]
 645 0088 43F40013 		orr	r3, r3, #2097152
 646 008c E365     		str	r3, [r4, #92]
 108:USB_Device/Target/usbd_conf.c **** 
 647              		.loc 1 108 5 view .LVU141
 648 008e E36D     		ldr	r3, [r4, #92]
 649 0090 03F40013 		and	r3, r3, #2097152
 650 0094 0193     		str	r3, [sp, #4]
 108:USB_Device/Target/usbd_conf.c **** 
 651              		.loc 1 108 5 view .LVU142
 652 0096 019B     		ldr	r3, [sp, #4]
 653              	.LBE3:
 108:USB_Device/Target/usbd_conf.c **** 
 654              		.loc 1 108 5 view .LVU143
 111:USB_Device/Target/usbd_conf.c ****     HAL_NVIC_EnableIRQ(USB_FS_IRQn);
 655              		.loc 1 111 5 view .LVU144
 656 0098 2A46     		mov	r2, r5
 657 009a 2946     		mov	r1, r5
 658 009c 4920     		movs	r0, #73
 659 009e FFF7FEFF 		bl	HAL_NVIC_SetPriority
 660              	.LVL54:
 112:USB_Device/Target/usbd_conf.c ****   /* USER CODE BEGIN USB_MspInit 1 */
ARM GAS  /tmp/ccrRyNXj.s 			page 28


 661              		.loc 1 112 5 view .LVU145
 662 00a2 4920     		movs	r0, #73
 663 00a4 FFF7FEFF 		bl	HAL_NVIC_EnableIRQ
 664              	.LVL55:
 117:USB_Device/Target/usbd_conf.c **** 
 665              		.loc 1 117 1 is_stmt 0 view .LVU146
 666 00a8 BBE7     		b	.L41
 667              	.LVL56:
 668              	.L46:
  92:USB_Device/Target/usbd_conf.c ****     }
 669              		.loc 1 92 7 is_stmt 1 view .LVU147
 670 00aa FFF7FEFF 		bl	Error_Handler
 671              	.LVL57:
 672 00ae D2E7     		b	.L43
 673              	.L48:
 674              		.align	2
 675              	.L47:
 676 00b0 00D40040 		.word	1073796096
 677 00b4 00100240 		.word	1073876992
 678 00b8 00000242 		.word	1107427328
 679              		.cfi_endproc
 680              	.LFE156:
 682              		.section	.text.HAL_PCD_MspDeInit,"ax",%progbits
 683              		.align	1
 684              		.global	HAL_PCD_MspDeInit
 685              		.syntax unified
 686              		.thumb
 687              		.thumb_func
 689              	HAL_PCD_MspDeInit:
 690              	.LVL58:
 691              	.LFB157:
 120:USB_Device/Target/usbd_conf.c ****   if(pcdHandle->Instance==USB)
 692              		.loc 1 120 1 view -0
 693              		.cfi_startproc
 694              		@ args = 0, pretend = 0, frame = 0
 695              		@ frame_needed = 0, uses_anonymous_args = 0
 120:USB_Device/Target/usbd_conf.c ****   if(pcdHandle->Instance==USB)
 696              		.loc 1 120 1 is_stmt 0 view .LVU149
 697 0000 08B5     		push	{r3, lr}
 698              	.LCFI16:
 699              		.cfi_def_cfa_offset 8
 700              		.cfi_offset 3, -8
 701              		.cfi_offset 14, -4
 121:USB_Device/Target/usbd_conf.c ****   {
 702              		.loc 1 121 3 is_stmt 1 view .LVU150
 121:USB_Device/Target/usbd_conf.c ****   {
 703              		.loc 1 121 15 is_stmt 0 view .LVU151
 704 0002 0268     		ldr	r2, [r0]
 121:USB_Device/Target/usbd_conf.c ****   {
 705              		.loc 1 121 5 view .LVU152
 706 0004 084B     		ldr	r3, .L53
 707 0006 9A42     		cmp	r2, r3
 708 0008 00D0     		beq	.L52
 709              	.LVL59:
 710              	.L49:
 142:USB_Device/Target/usbd_conf.c **** 
 711              		.loc 1 142 1 view .LVU153
ARM GAS  /tmp/ccrRyNXj.s 			page 29


 712 000a 08BD     		pop	{r3, pc}
 713              	.LVL60:
 714              	.L52:
 127:USB_Device/Target/usbd_conf.c **** 
 715              		.loc 1 127 5 is_stmt 1 view .LVU154
 716 000c 074A     		ldr	r2, .L53+4
 717 000e D36D     		ldr	r3, [r2, #92]
 718 0010 23F40013 		bic	r3, r3, #2097152
 719 0014 D365     		str	r3, [r2, #92]
 127:USB_Device/Target/usbd_conf.c **** 
 720              		.loc 1 127 32 view .LVU155
 133:USB_Device/Target/usbd_conf.c **** 
 721              		.loc 1 133 5 view .LVU156
 722 0016 4FF4C051 		mov	r1, #6144
 723 001a 0548     		ldr	r0, .L53+8
 724              	.LVL61:
 133:USB_Device/Target/usbd_conf.c **** 
 725              		.loc 1 133 5 is_stmt 0 view .LVU157
 726 001c FFF7FEFF 		bl	HAL_GPIO_DeInit
 727              	.LVL62:
 136:USB_Device/Target/usbd_conf.c **** 
 728              		.loc 1 136 5 is_stmt 1 view .LVU158
 729 0020 4920     		movs	r0, #73
 730 0022 FFF7FEFF 		bl	HAL_NVIC_DisableIRQ
 731              	.LVL63:
 142:USB_Device/Target/usbd_conf.c **** 
 732              		.loc 1 142 1 is_stmt 0 view .LVU159
 733 0026 F0E7     		b	.L49
 734              	.L54:
 735              		.align	2
 736              	.L53:
 737 0028 00D40040 		.word	1073796096
 738 002c 00100240 		.word	1073876992
 739 0030 00000242 		.word	1107427328
 740              		.cfi_endproc
 741              	.LFE157:
 743              		.section	.text.USBD_LL_Init,"ax",%progbits
 744              		.align	1
 745              		.global	USBD_LL_Init
 746              		.syntax unified
 747              		.thumb
 748              		.thumb_func
 750              	USBD_LL_Init:
 751              	.LVL64:
 752              	.LFB169:
 413:USB_Device/Target/usbd_conf.c ****   /* Init USB Ip. */
 753              		.loc 1 413 1 is_stmt 1 view -0
 754              		.cfi_startproc
 755              		@ args = 0, pretend = 0, frame = 0
 756              		@ frame_needed = 0, uses_anonymous_args = 0
 413:USB_Device/Target/usbd_conf.c ****   /* Init USB Ip. */
 757              		.loc 1 413 1 is_stmt 0 view .LVU161
 758 0000 38B5     		push	{r3, r4, r5, lr}
 759              	.LCFI17:
 760              		.cfi_def_cfa_offset 16
 761              		.cfi_offset 3, -16
 762              		.cfi_offset 4, -12
ARM GAS  /tmp/ccrRyNXj.s 			page 30


 763              		.cfi_offset 5, -8
 764              		.cfi_offset 14, -4
 765 0002 0546     		mov	r5, r0
 415:USB_Device/Target/usbd_conf.c ****   /* Link the driver to the stack. */
 766              		.loc 1 415 3 is_stmt 1 view .LVU162
 415:USB_Device/Target/usbd_conf.c ****   /* Link the driver to the stack. */
 767              		.loc 1 415 21 is_stmt 0 view .LVU163
 768 0004 334C     		ldr	r4, .L59
 769 0006 C4F8F002 		str	r0, [r4, #752]
 417:USB_Device/Target/usbd_conf.c **** /* Enable USB power on Pwrctrl CR2 register. */
 770              		.loc 1 417 3 is_stmt 1 view .LVU164
 417:USB_Device/Target/usbd_conf.c **** /* Enable USB power on Pwrctrl CR2 register. */
 771              		.loc 1 417 15 is_stmt 0 view .LVU165
 772 000a C0F8C842 		str	r4, [r0, #712]
 419:USB_Device/Target/usbd_conf.c **** 
 773              		.loc 1 419 3 is_stmt 1 view .LVU166
 774 000e FFF7FEFF 		bl	HAL_PWREx_EnableVddUSB
 775              	.LVL65:
 421:USB_Device/Target/usbd_conf.c ****   hpcd_USB_FS.Init.dev_endpoints = 8;
 776              		.loc 1 421 3 view .LVU167
 421:USB_Device/Target/usbd_conf.c ****   hpcd_USB_FS.Init.dev_endpoints = 8;
 777              		.loc 1 421 24 is_stmt 0 view .LVU168
 778 0012 314B     		ldr	r3, .L59+4
 779 0014 2360     		str	r3, [r4]
 422:USB_Device/Target/usbd_conf.c ****   hpcd_USB_FS.Init.speed = PCD_SPEED_FULL;
 780              		.loc 1 422 3 is_stmt 1 view .LVU169
 422:USB_Device/Target/usbd_conf.c ****   hpcd_USB_FS.Init.speed = PCD_SPEED_FULL;
 781              		.loc 1 422 34 is_stmt 0 view .LVU170
 782 0016 0823     		movs	r3, #8
 783 0018 6360     		str	r3, [r4, #4]
 423:USB_Device/Target/usbd_conf.c ****   hpcd_USB_FS.Init.phy_itface = PCD_PHY_EMBEDDED;
 784              		.loc 1 423 3 is_stmt 1 view .LVU171
 423:USB_Device/Target/usbd_conf.c ****   hpcd_USB_FS.Init.phy_itface = PCD_PHY_EMBEDDED;
 785              		.loc 1 423 26 is_stmt 0 view .LVU172
 786 001a 0223     		movs	r3, #2
 787 001c A360     		str	r3, [r4, #8]
 424:USB_Device/Target/usbd_conf.c ****   hpcd_USB_FS.Init.Sof_enable = DISABLE;
 788              		.loc 1 424 3 is_stmt 1 view .LVU173
 424:USB_Device/Target/usbd_conf.c ****   hpcd_USB_FS.Init.Sof_enable = DISABLE;
 789              		.loc 1 424 31 is_stmt 0 view .LVU174
 790 001e 2361     		str	r3, [r4, #16]
 425:USB_Device/Target/usbd_conf.c ****   hpcd_USB_FS.Init.low_power_enable = DISABLE;
 791              		.loc 1 425 3 is_stmt 1 view .LVU175
 425:USB_Device/Target/usbd_conf.c ****   hpcd_USB_FS.Init.low_power_enable = DISABLE;
 792              		.loc 1 425 31 is_stmt 0 view .LVU176
 793 0020 0023     		movs	r3, #0
 794 0022 6361     		str	r3, [r4, #20]
 426:USB_Device/Target/usbd_conf.c ****   hpcd_USB_FS.Init.lpm_enable = DISABLE;
 795              		.loc 1 426 3 is_stmt 1 view .LVU177
 426:USB_Device/Target/usbd_conf.c ****   hpcd_USB_FS.Init.lpm_enable = DISABLE;
 796              		.loc 1 426 37 is_stmt 0 view .LVU178
 797 0024 A361     		str	r3, [r4, #24]
 427:USB_Device/Target/usbd_conf.c ****   hpcd_USB_FS.Init.battery_charging_enable = DISABLE;
 798              		.loc 1 427 3 is_stmt 1 view .LVU179
 427:USB_Device/Target/usbd_conf.c ****   hpcd_USB_FS.Init.battery_charging_enable = DISABLE;
 799              		.loc 1 427 31 is_stmt 0 view .LVU180
 800 0026 E361     		str	r3, [r4, #28]
ARM GAS  /tmp/ccrRyNXj.s 			page 31


 428:USB_Device/Target/usbd_conf.c ****   if (HAL_PCD_Init(&hpcd_USB_FS) != HAL_OK)
 801              		.loc 1 428 3 is_stmt 1 view .LVU181
 428:USB_Device/Target/usbd_conf.c ****   if (HAL_PCD_Init(&hpcd_USB_FS) != HAL_OK)
 802              		.loc 1 428 44 is_stmt 0 view .LVU182
 803 0028 2362     		str	r3, [r4, #32]
 429:USB_Device/Target/usbd_conf.c ****   {
 804              		.loc 1 429 3 is_stmt 1 view .LVU183
 429:USB_Device/Target/usbd_conf.c ****   {
 805              		.loc 1 429 7 is_stmt 0 view .LVU184
 806 002a 2046     		mov	r0, r4
 807 002c FFF7FEFF 		bl	HAL_PCD_Init
 808              	.LVL66:
 429:USB_Device/Target/usbd_conf.c ****   {
 809              		.loc 1 429 6 view .LVU185
 810 0030 0028     		cmp	r0, #0
 811 0032 4BD1     		bne	.L58
 812              	.L56:
 436:USB_Device/Target/usbd_conf.c ****   HAL_PCD_RegisterCallback(&hpcd_USB_FS, HAL_PCD_SETUPSTAGE_CB_ID, PCD_SetupStageCallback);
 813              		.loc 1 436 3 is_stmt 1 view .LVU186
 814 0034 274C     		ldr	r4, .L59
 815 0036 294A     		ldr	r2, .L59+8
 816 0038 0121     		movs	r1, #1
 817 003a 2046     		mov	r0, r4
 818 003c FFF7FEFF 		bl	HAL_PCD_RegisterCallback
 819              	.LVL67:
 437:USB_Device/Target/usbd_conf.c ****   HAL_PCD_RegisterCallback(&hpcd_USB_FS, HAL_PCD_RESET_CB_ID, PCD_ResetCallback);
 820              		.loc 1 437 3 view .LVU187
 821 0040 274A     		ldr	r2, .L59+12
 822 0042 0221     		movs	r1, #2
 823 0044 2046     		mov	r0, r4
 824 0046 FFF7FEFF 		bl	HAL_PCD_RegisterCallback
 825              	.LVL68:
 438:USB_Device/Target/usbd_conf.c ****   HAL_PCD_RegisterCallback(&hpcd_USB_FS, HAL_PCD_SUSPEND_CB_ID, PCD_SuspendCallback);
 826              		.loc 1 438 3 view .LVU188
 827 004a 264A     		ldr	r2, .L59+16
 828 004c 0321     		movs	r1, #3
 829 004e 2046     		mov	r0, r4
 830 0050 FFF7FEFF 		bl	HAL_PCD_RegisterCallback
 831              	.LVL69:
 439:USB_Device/Target/usbd_conf.c ****   HAL_PCD_RegisterCallback(&hpcd_USB_FS, HAL_PCD_RESUME_CB_ID, PCD_ResumeCallback);
 832              		.loc 1 439 3 view .LVU189
 833 0054 244A     		ldr	r2, .L59+20
 834 0056 0421     		movs	r1, #4
 835 0058 2046     		mov	r0, r4
 836 005a FFF7FEFF 		bl	HAL_PCD_RegisterCallback
 837              	.LVL70:
 440:USB_Device/Target/usbd_conf.c ****   HAL_PCD_RegisterCallback(&hpcd_USB_FS, HAL_PCD_CONNECT_CB_ID, PCD_ConnectCallback);
 838              		.loc 1 440 3 view .LVU190
 839 005e 234A     		ldr	r2, .L59+24
 840 0060 0521     		movs	r1, #5
 841 0062 2046     		mov	r0, r4
 842 0064 FFF7FEFF 		bl	HAL_PCD_RegisterCallback
 843              	.LVL71:
 441:USB_Device/Target/usbd_conf.c ****   HAL_PCD_RegisterCallback(&hpcd_USB_FS, HAL_PCD_DISCONNECT_CB_ID, PCD_DisconnectCallback);
 844              		.loc 1 441 3 view .LVU191
 845 0068 214A     		ldr	r2, .L59+28
 846 006a 0621     		movs	r1, #6
ARM GAS  /tmp/ccrRyNXj.s 			page 32


 847 006c 2046     		mov	r0, r4
 848 006e FFF7FEFF 		bl	HAL_PCD_RegisterCallback
 849              	.LVL72:
 442:USB_Device/Target/usbd_conf.c ****   /* USER CODE BEGIN RegisterCallBackFirstPart */
 850              		.loc 1 442 3 view .LVU192
 851 0072 204A     		ldr	r2, .L59+32
 852 0074 0721     		movs	r1, #7
 853 0076 2046     		mov	r0, r4
 854 0078 FFF7FEFF 		bl	HAL_PCD_RegisterCallback
 855              	.LVL73:
 446:USB_Device/Target/usbd_conf.c ****   HAL_PCD_RegisterDataInStageCallback(&hpcd_USB_FS, PCD_DataInStageCallback);
 856              		.loc 1 446 3 view .LVU193
 857 007c 1E49     		ldr	r1, .L59+36
 858 007e 2046     		mov	r0, r4
 859 0080 FFF7FEFF 		bl	HAL_PCD_RegisterDataOutStageCallback
 860              	.LVL74:
 447:USB_Device/Target/usbd_conf.c ****   HAL_PCD_RegisterIsoOutIncpltCallback(&hpcd_USB_FS, PCD_ISOOUTIncompleteCallback);
 861              		.loc 1 447 3 view .LVU194
 862 0084 1D49     		ldr	r1, .L59+40
 863 0086 2046     		mov	r0, r4
 864 0088 FFF7FEFF 		bl	HAL_PCD_RegisterDataInStageCallback
 865              	.LVL75:
 448:USB_Device/Target/usbd_conf.c ****   HAL_PCD_RegisterIsoInIncpltCallback(&hpcd_USB_FS, PCD_ISOINIncompleteCallback);
 866              		.loc 1 448 3 view .LVU195
 867 008c 1C49     		ldr	r1, .L59+44
 868 008e 2046     		mov	r0, r4
 869 0090 FFF7FEFF 		bl	HAL_PCD_RegisterIsoOutIncpltCallback
 870              	.LVL76:
 449:USB_Device/Target/usbd_conf.c ****   /* USER CODE BEGIN RegisterCallBackSecondPart */
 871              		.loc 1 449 3 view .LVU196
 872 0094 1B49     		ldr	r1, .L59+48
 873 0096 2046     		mov	r0, r4
 874 0098 FFF7FEFF 		bl	HAL_PCD_RegisterIsoInIncpltCallback
 875              	.LVL77:
 455:USB_Device/Target/usbd_conf.c ****   HAL_PCDEx_PMAConfig((PCD_HandleTypeDef*)pdev->pData , 0x80 , PCD_SNG_BUF, 0x58);
 876              		.loc 1 455 3 view .LVU197
 877 009c 1823     		movs	r3, #24
 878 009e 0022     		movs	r2, #0
 879 00a0 1146     		mov	r1, r2
 880 00a2 D5F8C802 		ldr	r0, [r5, #712]
 881 00a6 FFF7FEFF 		bl	HAL_PCDEx_PMAConfig
 882              	.LVL78:
 456:USB_Device/Target/usbd_conf.c ****   /* USER CODE END EndPoint_Configuration */
 883              		.loc 1 456 3 view .LVU198
 884 00aa 5823     		movs	r3, #88
 885 00ac 0022     		movs	r2, #0
 886 00ae 8021     		movs	r1, #128
 887 00b0 D5F8C802 		ldr	r0, [r5, #712]
 888 00b4 FFF7FEFF 		bl	HAL_PCDEx_PMAConfig
 889              	.LVL79:
 459:USB_Device/Target/usbd_conf.c ****   /* USER CODE END EndPoint_Configuration_HID */
 890              		.loc 1 459 3 view .LVU199
 891 00b8 4FF48073 		mov	r3, #256
 892 00bc 0022     		movs	r2, #0
 893 00be 8121     		movs	r1, #129
 894 00c0 D5F8C802 		ldr	r0, [r5, #712]
 895 00c4 FFF7FEFF 		bl	HAL_PCDEx_PMAConfig
ARM GAS  /tmp/ccrRyNXj.s 			page 33


 896              	.LVL80:
 461:USB_Device/Target/usbd_conf.c **** }
 897              		.loc 1 461 3 view .LVU200
 462:USB_Device/Target/usbd_conf.c **** 
 898              		.loc 1 462 1 is_stmt 0 view .LVU201
 899 00c8 0020     		movs	r0, #0
 900 00ca 38BD     		pop	{r3, r4, r5, pc}
 901              	.LVL81:
 902              	.L58:
 431:USB_Device/Target/usbd_conf.c ****   }
 903              		.loc 1 431 5 is_stmt 1 view .LVU202
 904 00cc FFF7FEFF 		bl	Error_Handler
 905              	.LVL82:
 906 00d0 B0E7     		b	.L56
 907              	.L60:
 908 00d2 00BF     		.align	2
 909              	.L59:
 910 00d4 00000000 		.word	hpcd_USB_FS
 911 00d8 00D40040 		.word	1073796096
 912 00dc 00000000 		.word	PCD_SOFCallback
 913 00e0 00000000 		.word	PCD_SetupStageCallback
 914 00e4 00000000 		.word	PCD_ResetCallback
 915 00e8 00000000 		.word	PCD_SuspendCallback
 916 00ec 00000000 		.word	PCD_ResumeCallback
 917 00f0 00000000 		.word	PCD_ConnectCallback
 918 00f4 00000000 		.word	PCD_DisconnectCallback
 919 00f8 00000000 		.word	PCD_DataOutStageCallback
 920 00fc 00000000 		.word	PCD_DataInStageCallback
 921 0100 00000000 		.word	PCD_ISOOUTIncompleteCallback
 922 0104 00000000 		.word	PCD_ISOINIncompleteCallback
 923              		.cfi_endproc
 924              	.LFE169:
 926              		.section	.text.USBD_LL_DeInit,"ax",%progbits
 927              		.align	1
 928              		.global	USBD_LL_DeInit
 929              		.syntax unified
 930              		.thumb
 931              		.thumb_func
 933              	USBD_LL_DeInit:
 934              	.LVL83:
 935              	.LFB170:
 470:USB_Device/Target/usbd_conf.c ****   HAL_StatusTypeDef hal_status = HAL_OK;
 936              		.loc 1 470 1 view -0
 937              		.cfi_startproc
 938              		@ args = 0, pretend = 0, frame = 0
 939              		@ frame_needed = 0, uses_anonymous_args = 0
 470:USB_Device/Target/usbd_conf.c ****   HAL_StatusTypeDef hal_status = HAL_OK;
 940              		.loc 1 470 1 is_stmt 0 view .LVU204
 941 0000 08B5     		push	{r3, lr}
 942              	.LCFI18:
 943              		.cfi_def_cfa_offset 8
 944              		.cfi_offset 3, -8
 945              		.cfi_offset 14, -4
 471:USB_Device/Target/usbd_conf.c ****   USBD_StatusTypeDef usb_status = USBD_OK;
 946              		.loc 1 471 3 is_stmt 1 view .LVU205
 947              	.LVL84:
 472:USB_Device/Target/usbd_conf.c **** 
ARM GAS  /tmp/ccrRyNXj.s 			page 34


 948              		.loc 1 472 3 view .LVU206
 474:USB_Device/Target/usbd_conf.c **** 
 949              		.loc 1 474 3 view .LVU207
 474:USB_Device/Target/usbd_conf.c **** 
 950              		.loc 1 474 16 is_stmt 0 view .LVU208
 951 0002 D0F8C802 		ldr	r0, [r0, #712]
 952              	.LVL85:
 474:USB_Device/Target/usbd_conf.c **** 
 953              		.loc 1 474 16 view .LVU209
 954 0006 FFF7FEFF 		bl	HAL_PCD_DeInit
 955              	.LVL86:
 476:USB_Device/Target/usbd_conf.c **** 
 956              		.loc 1 476 3 is_stmt 1 view .LVU210
 476:USB_Device/Target/usbd_conf.c **** 
 957              		.loc 1 476 17 is_stmt 0 view .LVU211
 958 000a FFF7FEFF 		bl	USBD_Get_USB_Status
 959              	.LVL87:
 478:USB_Device/Target/usbd_conf.c **** }
 960              		.loc 1 478 3 is_stmt 1 view .LVU212
 479:USB_Device/Target/usbd_conf.c **** 
 961              		.loc 1 479 1 is_stmt 0 view .LVU213
 962 000e 08BD     		pop	{r3, pc}
 963              		.cfi_endproc
 964              	.LFE170:
 966              		.section	.text.USBD_LL_Start,"ax",%progbits
 967              		.align	1
 968              		.global	USBD_LL_Start
 969              		.syntax unified
 970              		.thumb
 971              		.thumb_func
 973              	USBD_LL_Start:
 974              	.LVL88:
 975              	.LFB171:
 487:USB_Device/Target/usbd_conf.c ****   HAL_StatusTypeDef hal_status = HAL_OK;
 976              		.loc 1 487 1 is_stmt 1 view -0
 977              		.cfi_startproc
 978              		@ args = 0, pretend = 0, frame = 0
 979              		@ frame_needed = 0, uses_anonymous_args = 0
 487:USB_Device/Target/usbd_conf.c ****   HAL_StatusTypeDef hal_status = HAL_OK;
 980              		.loc 1 487 1 is_stmt 0 view .LVU215
 981 0000 08B5     		push	{r3, lr}
 982              	.LCFI19:
 983              		.cfi_def_cfa_offset 8
 984              		.cfi_offset 3, -8
 985              		.cfi_offset 14, -4
 488:USB_Device/Target/usbd_conf.c ****   USBD_StatusTypeDef usb_status = USBD_OK;
 986              		.loc 1 488 3 is_stmt 1 view .LVU216
 987              	.LVL89:
 489:USB_Device/Target/usbd_conf.c **** 
 988              		.loc 1 489 3 view .LVU217
 491:USB_Device/Target/usbd_conf.c **** 
 989              		.loc 1 491 3 view .LVU218
 491:USB_Device/Target/usbd_conf.c **** 
 990              		.loc 1 491 16 is_stmt 0 view .LVU219
 991 0002 D0F8C802 		ldr	r0, [r0, #712]
 992              	.LVL90:
 491:USB_Device/Target/usbd_conf.c **** 
ARM GAS  /tmp/ccrRyNXj.s 			page 35


 993              		.loc 1 491 16 view .LVU220
 994 0006 FFF7FEFF 		bl	HAL_PCD_Start
 995              	.LVL91:
 493:USB_Device/Target/usbd_conf.c **** 
 996              		.loc 1 493 3 is_stmt 1 view .LVU221
 493:USB_Device/Target/usbd_conf.c **** 
 997              		.loc 1 493 17 is_stmt 0 view .LVU222
 998 000a FFF7FEFF 		bl	USBD_Get_USB_Status
 999              	.LVL92:
 495:USB_Device/Target/usbd_conf.c **** }
 1000              		.loc 1 495 3 is_stmt 1 view .LVU223
 496:USB_Device/Target/usbd_conf.c **** 
 1001              		.loc 1 496 1 is_stmt 0 view .LVU224
 1002 000e 08BD     		pop	{r3, pc}
 1003              		.cfi_endproc
 1004              	.LFE171:
 1006              		.section	.text.USBD_LL_Stop,"ax",%progbits
 1007              		.align	1
 1008              		.global	USBD_LL_Stop
 1009              		.syntax unified
 1010              		.thumb
 1011              		.thumb_func
 1013              	USBD_LL_Stop:
 1014              	.LVL93:
 1015              	.LFB172:
 504:USB_Device/Target/usbd_conf.c ****   HAL_StatusTypeDef hal_status = HAL_OK;
 1016              		.loc 1 504 1 is_stmt 1 view -0
 1017              		.cfi_startproc
 1018              		@ args = 0, pretend = 0, frame = 0
 1019              		@ frame_needed = 0, uses_anonymous_args = 0
 504:USB_Device/Target/usbd_conf.c ****   HAL_StatusTypeDef hal_status = HAL_OK;
 1020              		.loc 1 504 1 is_stmt 0 view .LVU226
 1021 0000 08B5     		push	{r3, lr}
 1022              	.LCFI20:
 1023              		.cfi_def_cfa_offset 8
 1024              		.cfi_offset 3, -8
 1025              		.cfi_offset 14, -4
 505:USB_Device/Target/usbd_conf.c ****   USBD_StatusTypeDef usb_status = USBD_OK;
 1026              		.loc 1 505 3 is_stmt 1 view .LVU227
 1027              	.LVL94:
 506:USB_Device/Target/usbd_conf.c **** 
 1028              		.loc 1 506 3 view .LVU228
 508:USB_Device/Target/usbd_conf.c **** 
 1029              		.loc 1 508 3 view .LVU229
 508:USB_Device/Target/usbd_conf.c **** 
 1030              		.loc 1 508 16 is_stmt 0 view .LVU230
 1031 0002 D0F8C802 		ldr	r0, [r0, #712]
 1032              	.LVL95:
 508:USB_Device/Target/usbd_conf.c **** 
 1033              		.loc 1 508 16 view .LVU231
 1034 0006 FFF7FEFF 		bl	HAL_PCD_Stop
 1035              	.LVL96:
 510:USB_Device/Target/usbd_conf.c **** 
 1036              		.loc 1 510 3 is_stmt 1 view .LVU232
 510:USB_Device/Target/usbd_conf.c **** 
 1037              		.loc 1 510 17 is_stmt 0 view .LVU233
 1038 000a FFF7FEFF 		bl	USBD_Get_USB_Status
ARM GAS  /tmp/ccrRyNXj.s 			page 36


 1039              	.LVL97:
 512:USB_Device/Target/usbd_conf.c **** }
 1040              		.loc 1 512 3 is_stmt 1 view .LVU234
 513:USB_Device/Target/usbd_conf.c **** 
 1041              		.loc 1 513 1 is_stmt 0 view .LVU235
 1042 000e 08BD     		pop	{r3, pc}
 1043              		.cfi_endproc
 1044              	.LFE172:
 1046              		.section	.text.USBD_LL_OpenEP,"ax",%progbits
 1047              		.align	1
 1048              		.global	USBD_LL_OpenEP
 1049              		.syntax unified
 1050              		.thumb
 1051              		.thumb_func
 1053              	USBD_LL_OpenEP:
 1054              	.LVL98:
 1055              	.LFB173:
 524:USB_Device/Target/usbd_conf.c ****   HAL_StatusTypeDef hal_status = HAL_OK;
 1056              		.loc 1 524 1 is_stmt 1 view -0
 1057              		.cfi_startproc
 1058              		@ args = 0, pretend = 0, frame = 0
 1059              		@ frame_needed = 0, uses_anonymous_args = 0
 524:USB_Device/Target/usbd_conf.c ****   HAL_StatusTypeDef hal_status = HAL_OK;
 1060              		.loc 1 524 1 is_stmt 0 view .LVU237
 1061 0000 08B5     		push	{r3, lr}
 1062              	.LCFI21:
 1063              		.cfi_def_cfa_offset 8
 1064              		.cfi_offset 3, -8
 1065              		.cfi_offset 14, -4
 1066 0002 9446     		mov	ip, r2
 1067 0004 1A46     		mov	r2, r3
 1068              	.LVL99:
 525:USB_Device/Target/usbd_conf.c ****   USBD_StatusTypeDef usb_status = USBD_OK;
 1069              		.loc 1 525 3 is_stmt 1 view .LVU238
 526:USB_Device/Target/usbd_conf.c **** 
 1070              		.loc 1 526 3 view .LVU239
 528:USB_Device/Target/usbd_conf.c **** 
 1071              		.loc 1 528 3 view .LVU240
 528:USB_Device/Target/usbd_conf.c **** 
 1072              		.loc 1 528 16 is_stmt 0 view .LVU241
 1073 0006 6346     		mov	r3, ip
 1074              	.LVL100:
 528:USB_Device/Target/usbd_conf.c **** 
 1075              		.loc 1 528 16 view .LVU242
 1076 0008 D0F8C802 		ldr	r0, [r0, #712]
 1077              	.LVL101:
 528:USB_Device/Target/usbd_conf.c **** 
 1078              		.loc 1 528 16 view .LVU243
 1079 000c FFF7FEFF 		bl	HAL_PCD_EP_Open
 1080              	.LVL102:
 530:USB_Device/Target/usbd_conf.c **** 
 1081              		.loc 1 530 3 is_stmt 1 view .LVU244
 530:USB_Device/Target/usbd_conf.c **** 
 1082              		.loc 1 530 17 is_stmt 0 view .LVU245
 1083 0010 FFF7FEFF 		bl	USBD_Get_USB_Status
 1084              	.LVL103:
 532:USB_Device/Target/usbd_conf.c **** }
ARM GAS  /tmp/ccrRyNXj.s 			page 37


 1085              		.loc 1 532 3 is_stmt 1 view .LVU246
 533:USB_Device/Target/usbd_conf.c **** 
 1086              		.loc 1 533 1 is_stmt 0 view .LVU247
 1087 0014 08BD     		pop	{r3, pc}
 1088              		.cfi_endproc
 1089              	.LFE173:
 1091              		.section	.text.USBD_LL_CloseEP,"ax",%progbits
 1092              		.align	1
 1093              		.global	USBD_LL_CloseEP
 1094              		.syntax unified
 1095              		.thumb
 1096              		.thumb_func
 1098              	USBD_LL_CloseEP:
 1099              	.LVL104:
 1100              	.LFB174:
 542:USB_Device/Target/usbd_conf.c ****   HAL_StatusTypeDef hal_status = HAL_OK;
 1101              		.loc 1 542 1 is_stmt 1 view -0
 1102              		.cfi_startproc
 1103              		@ args = 0, pretend = 0, frame = 0
 1104              		@ frame_needed = 0, uses_anonymous_args = 0
 542:USB_Device/Target/usbd_conf.c ****   HAL_StatusTypeDef hal_status = HAL_OK;
 1105              		.loc 1 542 1 is_stmt 0 view .LVU249
 1106 0000 08B5     		push	{r3, lr}
 1107              	.LCFI22:
 1108              		.cfi_def_cfa_offset 8
 1109              		.cfi_offset 3, -8
 1110              		.cfi_offset 14, -4
 543:USB_Device/Target/usbd_conf.c ****   USBD_StatusTypeDef usb_status = USBD_OK;
 1111              		.loc 1 543 3 is_stmt 1 view .LVU250
 1112              	.LVL105:
 544:USB_Device/Target/usbd_conf.c **** 
 1113              		.loc 1 544 3 view .LVU251
 546:USB_Device/Target/usbd_conf.c **** 
 1114              		.loc 1 546 3 view .LVU252
 546:USB_Device/Target/usbd_conf.c **** 
 1115              		.loc 1 546 16 is_stmt 0 view .LVU253
 1116 0002 D0F8C802 		ldr	r0, [r0, #712]
 1117              	.LVL106:
 546:USB_Device/Target/usbd_conf.c **** 
 1118              		.loc 1 546 16 view .LVU254
 1119 0006 FFF7FEFF 		bl	HAL_PCD_EP_Close
 1120              	.LVL107:
 548:USB_Device/Target/usbd_conf.c **** 
 1121              		.loc 1 548 3 is_stmt 1 view .LVU255
 548:USB_Device/Target/usbd_conf.c **** 
 1122              		.loc 1 548 17 is_stmt 0 view .LVU256
 1123 000a FFF7FEFF 		bl	USBD_Get_USB_Status
 1124              	.LVL108:
 550:USB_Device/Target/usbd_conf.c **** }
 1125              		.loc 1 550 3 is_stmt 1 view .LVU257
 551:USB_Device/Target/usbd_conf.c **** 
 1126              		.loc 1 551 1 is_stmt 0 view .LVU258
 1127 000e 08BD     		pop	{r3, pc}
 1128              		.cfi_endproc
 1129              	.LFE174:
 1131              		.section	.text.USBD_LL_FlushEP,"ax",%progbits
 1132              		.align	1
ARM GAS  /tmp/ccrRyNXj.s 			page 38


 1133              		.global	USBD_LL_FlushEP
 1134              		.syntax unified
 1135              		.thumb
 1136              		.thumb_func
 1138              	USBD_LL_FlushEP:
 1139              	.LVL109:
 1140              	.LFB175:
 560:USB_Device/Target/usbd_conf.c ****   HAL_StatusTypeDef hal_status = HAL_OK;
 1141              		.loc 1 560 1 is_stmt 1 view -0
 1142              		.cfi_startproc
 1143              		@ args = 0, pretend = 0, frame = 0
 1144              		@ frame_needed = 0, uses_anonymous_args = 0
 560:USB_Device/Target/usbd_conf.c ****   HAL_StatusTypeDef hal_status = HAL_OK;
 1145              		.loc 1 560 1 is_stmt 0 view .LVU260
 1146 0000 08B5     		push	{r3, lr}
 1147              	.LCFI23:
 1148              		.cfi_def_cfa_offset 8
 1149              		.cfi_offset 3, -8
 1150              		.cfi_offset 14, -4
 561:USB_Device/Target/usbd_conf.c ****   USBD_StatusTypeDef usb_status = USBD_OK;
 1151              		.loc 1 561 3 is_stmt 1 view .LVU261
 1152              	.LVL110:
 562:USB_Device/Target/usbd_conf.c **** 
 1153              		.loc 1 562 3 view .LVU262
 564:USB_Device/Target/usbd_conf.c **** 
 1154              		.loc 1 564 3 view .LVU263
 564:USB_Device/Target/usbd_conf.c **** 
 1155              		.loc 1 564 16 is_stmt 0 view .LVU264
 1156 0002 D0F8C802 		ldr	r0, [r0, #712]
 1157              	.LVL111:
 564:USB_Device/Target/usbd_conf.c **** 
 1158              		.loc 1 564 16 view .LVU265
 1159 0006 FFF7FEFF 		bl	HAL_PCD_EP_Flush
 1160              	.LVL112:
 566:USB_Device/Target/usbd_conf.c **** 
 1161              		.loc 1 566 3 is_stmt 1 view .LVU266
 566:USB_Device/Target/usbd_conf.c **** 
 1162              		.loc 1 566 17 is_stmt 0 view .LVU267
 1163 000a FFF7FEFF 		bl	USBD_Get_USB_Status
 1164              	.LVL113:
 568:USB_Device/Target/usbd_conf.c **** }
 1165              		.loc 1 568 3 is_stmt 1 view .LVU268
 569:USB_Device/Target/usbd_conf.c **** 
 1166              		.loc 1 569 1 is_stmt 0 view .LVU269
 1167 000e 08BD     		pop	{r3, pc}
 1168              		.cfi_endproc
 1169              	.LFE175:
 1171              		.section	.text.USBD_LL_StallEP,"ax",%progbits
 1172              		.align	1
 1173              		.global	USBD_LL_StallEP
 1174              		.syntax unified
 1175              		.thumb
 1176              		.thumb_func
 1178              	USBD_LL_StallEP:
 1179              	.LVL114:
 1180              	.LFB176:
 578:USB_Device/Target/usbd_conf.c ****   HAL_StatusTypeDef hal_status = HAL_OK;
ARM GAS  /tmp/ccrRyNXj.s 			page 39


 1181              		.loc 1 578 1 is_stmt 1 view -0
 1182              		.cfi_startproc
 1183              		@ args = 0, pretend = 0, frame = 0
 1184              		@ frame_needed = 0, uses_anonymous_args = 0
 578:USB_Device/Target/usbd_conf.c ****   HAL_StatusTypeDef hal_status = HAL_OK;
 1185              		.loc 1 578 1 is_stmt 0 view .LVU271
 1186 0000 08B5     		push	{r3, lr}
 1187              	.LCFI24:
 1188              		.cfi_def_cfa_offset 8
 1189              		.cfi_offset 3, -8
 1190              		.cfi_offset 14, -4
 579:USB_Device/Target/usbd_conf.c ****   USBD_StatusTypeDef usb_status = USBD_OK;
 1191              		.loc 1 579 3 is_stmt 1 view .LVU272
 1192              	.LVL115:
 580:USB_Device/Target/usbd_conf.c **** 
 1193              		.loc 1 580 3 view .LVU273
 582:USB_Device/Target/usbd_conf.c **** 
 1194              		.loc 1 582 3 view .LVU274
 582:USB_Device/Target/usbd_conf.c **** 
 1195              		.loc 1 582 16 is_stmt 0 view .LVU275
 1196 0002 D0F8C802 		ldr	r0, [r0, #712]
 1197              	.LVL116:
 582:USB_Device/Target/usbd_conf.c **** 
 1198              		.loc 1 582 16 view .LVU276
 1199 0006 FFF7FEFF 		bl	HAL_PCD_EP_SetStall
 1200              	.LVL117:
 584:USB_Device/Target/usbd_conf.c **** 
 1201              		.loc 1 584 3 is_stmt 1 view .LVU277
 584:USB_Device/Target/usbd_conf.c **** 
 1202              		.loc 1 584 17 is_stmt 0 view .LVU278
 1203 000a FFF7FEFF 		bl	USBD_Get_USB_Status
 1204              	.LVL118:
 586:USB_Device/Target/usbd_conf.c **** }
 1205              		.loc 1 586 3 is_stmt 1 view .LVU279
 587:USB_Device/Target/usbd_conf.c **** 
 1206              		.loc 1 587 1 is_stmt 0 view .LVU280
 1207 000e 08BD     		pop	{r3, pc}
 1208              		.cfi_endproc
 1209              	.LFE176:
 1211              		.section	.text.USBD_LL_ClearStallEP,"ax",%progbits
 1212              		.align	1
 1213              		.global	USBD_LL_ClearStallEP
 1214              		.syntax unified
 1215              		.thumb
 1216              		.thumb_func
 1218              	USBD_LL_ClearStallEP:
 1219              	.LVL119:
 1220              	.LFB177:
 596:USB_Device/Target/usbd_conf.c ****   HAL_StatusTypeDef hal_status = HAL_OK;
 1221              		.loc 1 596 1 is_stmt 1 view -0
 1222              		.cfi_startproc
 1223              		@ args = 0, pretend = 0, frame = 0
 1224              		@ frame_needed = 0, uses_anonymous_args = 0
 596:USB_Device/Target/usbd_conf.c ****   HAL_StatusTypeDef hal_status = HAL_OK;
 1225              		.loc 1 596 1 is_stmt 0 view .LVU282
 1226 0000 08B5     		push	{r3, lr}
 1227              	.LCFI25:
ARM GAS  /tmp/ccrRyNXj.s 			page 40


 1228              		.cfi_def_cfa_offset 8
 1229              		.cfi_offset 3, -8
 1230              		.cfi_offset 14, -4
 597:USB_Device/Target/usbd_conf.c ****   USBD_StatusTypeDef usb_status = USBD_OK;
 1231              		.loc 1 597 3 is_stmt 1 view .LVU283
 1232              	.LVL120:
 598:USB_Device/Target/usbd_conf.c **** 
 1233              		.loc 1 598 3 view .LVU284
 600:USB_Device/Target/usbd_conf.c **** 
 1234              		.loc 1 600 3 view .LVU285
 600:USB_Device/Target/usbd_conf.c **** 
 1235              		.loc 1 600 16 is_stmt 0 view .LVU286
 1236 0002 D0F8C802 		ldr	r0, [r0, #712]
 1237              	.LVL121:
 600:USB_Device/Target/usbd_conf.c **** 
 1238              		.loc 1 600 16 view .LVU287
 1239 0006 FFF7FEFF 		bl	HAL_PCD_EP_ClrStall
 1240              	.LVL122:
 602:USB_Device/Target/usbd_conf.c **** 
 1241              		.loc 1 602 3 is_stmt 1 view .LVU288
 602:USB_Device/Target/usbd_conf.c **** 
 1242              		.loc 1 602 17 is_stmt 0 view .LVU289
 1243 000a FFF7FEFF 		bl	USBD_Get_USB_Status
 1244              	.LVL123:
 604:USB_Device/Target/usbd_conf.c **** }
 1245              		.loc 1 604 3 is_stmt 1 view .LVU290
 605:USB_Device/Target/usbd_conf.c **** 
 1246              		.loc 1 605 1 is_stmt 0 view .LVU291
 1247 000e 08BD     		pop	{r3, pc}
 1248              		.cfi_endproc
 1249              	.LFE177:
 1251              		.section	.text.USBD_LL_IsStallEP,"ax",%progbits
 1252              		.align	1
 1253              		.global	USBD_LL_IsStallEP
 1254              		.syntax unified
 1255              		.thumb
 1256              		.thumb_func
 1258              	USBD_LL_IsStallEP:
 1259              	.LVL124:
 1260              	.LFB178:
 614:USB_Device/Target/usbd_conf.c ****   PCD_HandleTypeDef *hpcd = (PCD_HandleTypeDef*) pdev->pData;
 1261              		.loc 1 614 1 is_stmt 1 view -0
 1262              		.cfi_startproc
 1263              		@ args = 0, pretend = 0, frame = 0
 1264              		@ frame_needed = 0, uses_anonymous_args = 0
 1265              		@ link register save eliminated.
 615:USB_Device/Target/usbd_conf.c **** 
 1266              		.loc 1 615 3 view .LVU293
 615:USB_Device/Target/usbd_conf.c **** 
 1267              		.loc 1 615 22 is_stmt 0 view .LVU294
 1268 0000 D0F8C832 		ldr	r3, [r0, #712]
 1269              	.LVL125:
 617:USB_Device/Target/usbd_conf.c ****   {
 1270              		.loc 1 617 3 is_stmt 1 view .LVU295
 617:USB_Device/Target/usbd_conf.c ****   {
 1271              		.loc 1 617 5 is_stmt 0 view .LVU296
 1272 0004 11F0800F 		tst	r1, #128
ARM GAS  /tmp/ccrRyNXj.s 			page 41


 1273 0008 08D1     		bne	.L80
 623:USB_Device/Target/usbd_conf.c ****   }
 1274              		.loc 1 623 5 is_stmt 1 view .LVU297
 623:USB_Device/Target/usbd_conf.c ****   }
 1275              		.loc 1 623 33 is_stmt 0 view .LVU298
 1276 000a 01F07F01 		and	r1, r1, #127
 1277              	.LVL126:
 623:USB_Device/Target/usbd_conf.c ****   }
 1278              		.loc 1 623 40 view .LVU299
 1279 000e 01EB8101 		add	r1, r1, r1, lsl #2
 1280 0012 03EBC103 		add	r3, r3, r1, lsl #3
 1281              	.LVL127:
 623:USB_Device/Target/usbd_conf.c ****   }
 1282              		.loc 1 623 40 view .LVU300
 1283 0016 93F86A01 		ldrb	r0, [r3, #362]	@ zero_extendqisi2
 1284              	.LVL128:
 625:USB_Device/Target/usbd_conf.c **** 
 1285              		.loc 1 625 1 view .LVU301
 1286 001a 7047     		bx	lr
 1287              	.LVL129:
 1288              	.L80:
 619:USB_Device/Target/usbd_conf.c ****   }
 1289              		.loc 1 619 5 is_stmt 1 view .LVU302
 619:USB_Device/Target/usbd_conf.c ****   }
 1290              		.loc 1 619 32 is_stmt 0 view .LVU303
 1291 001c 01F07F01 		and	r1, r1, #127
 1292              	.LVL130:
 619:USB_Device/Target/usbd_conf.c ****   }
 1293              		.loc 1 619 39 view .LVU304
 1294 0020 0131     		adds	r1, r1, #1
 1295 0022 01EB8101 		add	r1, r1, r1, lsl #2
 1296 0026 03EBC103 		add	r3, r3, r1, lsl #3
 1297              	.LVL131:
 619:USB_Device/Target/usbd_conf.c ****   }
 1298              		.loc 1 619 39 view .LVU305
 1299 002a 9878     		ldrb	r0, [r3, #2]	@ zero_extendqisi2
 1300              	.LVL132:
 619:USB_Device/Target/usbd_conf.c ****   }
 1301              		.loc 1 619 39 view .LVU306
 1302 002c 7047     		bx	lr
 1303              		.cfi_endproc
 1304              	.LFE178:
 1306              		.section	.text.USBD_LL_SetUSBAddress,"ax",%progbits
 1307              		.align	1
 1308              		.global	USBD_LL_SetUSBAddress
 1309              		.syntax unified
 1310              		.thumb
 1311              		.thumb_func
 1313              	USBD_LL_SetUSBAddress:
 1314              	.LVL133:
 1315              	.LFB179:
 634:USB_Device/Target/usbd_conf.c ****   HAL_StatusTypeDef hal_status = HAL_OK;
 1316              		.loc 1 634 1 is_stmt 1 view -0
 1317              		.cfi_startproc
 1318              		@ args = 0, pretend = 0, frame = 0
 1319              		@ frame_needed = 0, uses_anonymous_args = 0
 634:USB_Device/Target/usbd_conf.c ****   HAL_StatusTypeDef hal_status = HAL_OK;
ARM GAS  /tmp/ccrRyNXj.s 			page 42


 1320              		.loc 1 634 1 is_stmt 0 view .LVU308
 1321 0000 08B5     		push	{r3, lr}
 1322              	.LCFI26:
 1323              		.cfi_def_cfa_offset 8
 1324              		.cfi_offset 3, -8
 1325              		.cfi_offset 14, -4
 635:USB_Device/Target/usbd_conf.c ****   USBD_StatusTypeDef usb_status = USBD_OK;
 1326              		.loc 1 635 3 is_stmt 1 view .LVU309
 1327              	.LVL134:
 636:USB_Device/Target/usbd_conf.c **** 
 1328              		.loc 1 636 3 view .LVU310
 638:USB_Device/Target/usbd_conf.c **** 
 1329              		.loc 1 638 3 view .LVU311
 638:USB_Device/Target/usbd_conf.c **** 
 1330              		.loc 1 638 16 is_stmt 0 view .LVU312
 1331 0002 D0F8C802 		ldr	r0, [r0, #712]
 1332              	.LVL135:
 638:USB_Device/Target/usbd_conf.c **** 
 1333              		.loc 1 638 16 view .LVU313
 1334 0006 FFF7FEFF 		bl	HAL_PCD_SetAddress
 1335              	.LVL136:
 640:USB_Device/Target/usbd_conf.c **** 
 1336              		.loc 1 640 3 is_stmt 1 view .LVU314
 640:USB_Device/Target/usbd_conf.c **** 
 1337              		.loc 1 640 17 is_stmt 0 view .LVU315
 1338 000a FFF7FEFF 		bl	USBD_Get_USB_Status
 1339              	.LVL137:
 642:USB_Device/Target/usbd_conf.c **** }
 1340              		.loc 1 642 3 is_stmt 1 view .LVU316
 643:USB_Device/Target/usbd_conf.c **** 
 1341              		.loc 1 643 1 is_stmt 0 view .LVU317
 1342 000e 08BD     		pop	{r3, pc}
 1343              		.cfi_endproc
 1344              	.LFE179:
 1346              		.section	.text.USBD_LL_Transmit,"ax",%progbits
 1347              		.align	1
 1348              		.global	USBD_LL_Transmit
 1349              		.syntax unified
 1350              		.thumb
 1351              		.thumb_func
 1353              	USBD_LL_Transmit:
 1354              	.LVL138:
 1355              	.LFB180:
 654:USB_Device/Target/usbd_conf.c ****   HAL_StatusTypeDef hal_status = HAL_OK;
 1356              		.loc 1 654 1 is_stmt 1 view -0
 1357              		.cfi_startproc
 1358              		@ args = 0, pretend = 0, frame = 0
 1359              		@ frame_needed = 0, uses_anonymous_args = 0
 654:USB_Device/Target/usbd_conf.c ****   HAL_StatusTypeDef hal_status = HAL_OK;
 1360              		.loc 1 654 1 is_stmt 0 view .LVU319
 1361 0000 08B5     		push	{r3, lr}
 1362              	.LCFI27:
 1363              		.cfi_def_cfa_offset 8
 1364              		.cfi_offset 3, -8
 1365              		.cfi_offset 14, -4
 655:USB_Device/Target/usbd_conf.c ****   USBD_StatusTypeDef usb_status = USBD_OK;
 1366              		.loc 1 655 3 is_stmt 1 view .LVU320
ARM GAS  /tmp/ccrRyNXj.s 			page 43


 1367              	.LVL139:
 656:USB_Device/Target/usbd_conf.c **** 
 1368              		.loc 1 656 3 view .LVU321
 658:USB_Device/Target/usbd_conf.c **** 
 1369              		.loc 1 658 3 view .LVU322
 658:USB_Device/Target/usbd_conf.c **** 
 1370              		.loc 1 658 16 is_stmt 0 view .LVU323
 1371 0002 D0F8C802 		ldr	r0, [r0, #712]
 1372              	.LVL140:
 658:USB_Device/Target/usbd_conf.c **** 
 1373              		.loc 1 658 16 view .LVU324
 1374 0006 FFF7FEFF 		bl	HAL_PCD_EP_Transmit
 1375              	.LVL141:
 660:USB_Device/Target/usbd_conf.c **** 
 1376              		.loc 1 660 3 is_stmt 1 view .LVU325
 660:USB_Device/Target/usbd_conf.c **** 
 1377              		.loc 1 660 17 is_stmt 0 view .LVU326
 1378 000a FFF7FEFF 		bl	USBD_Get_USB_Status
 1379              	.LVL142:
 662:USB_Device/Target/usbd_conf.c **** }
 1380              		.loc 1 662 3 is_stmt 1 view .LVU327
 663:USB_Device/Target/usbd_conf.c **** 
 1381              		.loc 1 663 1 is_stmt 0 view .LVU328
 1382 000e 08BD     		pop	{r3, pc}
 1383              		.cfi_endproc
 1384              	.LFE180:
 1386              		.section	.text.USBD_LL_PrepareReceive,"ax",%progbits
 1387              		.align	1
 1388              		.global	USBD_LL_PrepareReceive
 1389              		.syntax unified
 1390              		.thumb
 1391              		.thumb_func
 1393              	USBD_LL_PrepareReceive:
 1394              	.LVL143:
 1395              	.LFB181:
 674:USB_Device/Target/usbd_conf.c ****   HAL_StatusTypeDef hal_status = HAL_OK;
 1396              		.loc 1 674 1 is_stmt 1 view -0
 1397              		.cfi_startproc
 1398              		@ args = 0, pretend = 0, frame = 0
 1399              		@ frame_needed = 0, uses_anonymous_args = 0
 674:USB_Device/Target/usbd_conf.c ****   HAL_StatusTypeDef hal_status = HAL_OK;
 1400              		.loc 1 674 1 is_stmt 0 view .LVU330
 1401 0000 08B5     		push	{r3, lr}
 1402              	.LCFI28:
 1403              		.cfi_def_cfa_offset 8
 1404              		.cfi_offset 3, -8
 1405              		.cfi_offset 14, -4
 675:USB_Device/Target/usbd_conf.c ****   USBD_StatusTypeDef usb_status = USBD_OK;
 1406              		.loc 1 675 3 is_stmt 1 view .LVU331
 1407              	.LVL144:
 676:USB_Device/Target/usbd_conf.c **** 
 1408              		.loc 1 676 3 view .LVU332
 678:USB_Device/Target/usbd_conf.c **** 
 1409              		.loc 1 678 3 view .LVU333
 678:USB_Device/Target/usbd_conf.c **** 
 1410              		.loc 1 678 16 is_stmt 0 view .LVU334
 1411 0002 D0F8C802 		ldr	r0, [r0, #712]
ARM GAS  /tmp/ccrRyNXj.s 			page 44


 1412              	.LVL145:
 678:USB_Device/Target/usbd_conf.c **** 
 1413              		.loc 1 678 16 view .LVU335
 1414 0006 FFF7FEFF 		bl	HAL_PCD_EP_Receive
 1415              	.LVL146:
 680:USB_Device/Target/usbd_conf.c **** 
 1416              		.loc 1 680 3 is_stmt 1 view .LVU336
 680:USB_Device/Target/usbd_conf.c **** 
 1417              		.loc 1 680 17 is_stmt 0 view .LVU337
 1418 000a FFF7FEFF 		bl	USBD_Get_USB_Status
 1419              	.LVL147:
 682:USB_Device/Target/usbd_conf.c **** }
 1420              		.loc 1 682 3 is_stmt 1 view .LVU338
 683:USB_Device/Target/usbd_conf.c **** 
 1421              		.loc 1 683 1 is_stmt 0 view .LVU339
 1422 000e 08BD     		pop	{r3, pc}
 1423              		.cfi_endproc
 1424              	.LFE181:
 1426              		.section	.text.USBD_LL_GetRxDataSize,"ax",%progbits
 1427              		.align	1
 1428              		.global	USBD_LL_GetRxDataSize
 1429              		.syntax unified
 1430              		.thumb
 1431              		.thumb_func
 1433              	USBD_LL_GetRxDataSize:
 1434              	.LVL148:
 1435              	.LFB182:
 692:USB_Device/Target/usbd_conf.c ****   return HAL_PCD_EP_GetRxCount((PCD_HandleTypeDef*) pdev->pData, ep_addr);
 1436              		.loc 1 692 1 is_stmt 1 view -0
 1437              		.cfi_startproc
 1438              		@ args = 0, pretend = 0, frame = 0
 1439              		@ frame_needed = 0, uses_anonymous_args = 0
 692:USB_Device/Target/usbd_conf.c ****   return HAL_PCD_EP_GetRxCount((PCD_HandleTypeDef*) pdev->pData, ep_addr);
 1440              		.loc 1 692 1 is_stmt 0 view .LVU341
 1441 0000 08B5     		push	{r3, lr}
 1442              	.LCFI29:
 1443              		.cfi_def_cfa_offset 8
 1444              		.cfi_offset 3, -8
 1445              		.cfi_offset 14, -4
 693:USB_Device/Target/usbd_conf.c **** }
 1446              		.loc 1 693 3 is_stmt 1 view .LVU342
 693:USB_Device/Target/usbd_conf.c **** }
 1447              		.loc 1 693 10 is_stmt 0 view .LVU343
 1448 0002 D0F8C802 		ldr	r0, [r0, #712]
 1449              	.LVL149:
 693:USB_Device/Target/usbd_conf.c **** }
 1450              		.loc 1 693 10 view .LVU344
 1451 0006 FFF7FEFF 		bl	HAL_PCD_EP_GetRxCount
 1452              	.LVL150:
 694:USB_Device/Target/usbd_conf.c **** 
 1453              		.loc 1 694 1 view .LVU345
 1454 000a 08BD     		pop	{r3, pc}
 1455              		.cfi_endproc
 1456              	.LFE182:
 1458              		.section	.text.USBD_LL_Delay,"ax",%progbits
 1459              		.align	1
 1460              		.global	USBD_LL_Delay
ARM GAS  /tmp/ccrRyNXj.s 			page 45


 1461              		.syntax unified
 1462              		.thumb
 1463              		.thumb_func
 1465              	USBD_LL_Delay:
 1466              	.LVL151:
 1467              	.LFB183:
 702:USB_Device/Target/usbd_conf.c ****   HAL_Delay(Delay);
 1468              		.loc 1 702 1 is_stmt 1 view -0
 1469              		.cfi_startproc
 1470              		@ args = 0, pretend = 0, frame = 0
 1471              		@ frame_needed = 0, uses_anonymous_args = 0
 702:USB_Device/Target/usbd_conf.c ****   HAL_Delay(Delay);
 1472              		.loc 1 702 1 is_stmt 0 view .LVU347
 1473 0000 08B5     		push	{r3, lr}
 1474              	.LCFI30:
 1475              		.cfi_def_cfa_offset 8
 1476              		.cfi_offset 3, -8
 1477              		.cfi_offset 14, -4
 703:USB_Device/Target/usbd_conf.c **** }
 1478              		.loc 1 703 3 is_stmt 1 view .LVU348
 1479 0002 FFF7FEFF 		bl	HAL_Delay
 1480              	.LVL152:
 704:USB_Device/Target/usbd_conf.c **** 
 1481              		.loc 1 704 1 is_stmt 0 view .LVU349
 1482 0006 08BD     		pop	{r3, pc}
 1483              		.cfi_endproc
 1484              	.LFE183:
 1486              		.section	.text.USBD_static_malloc,"ax",%progbits
 1487              		.align	1
 1488              		.global	USBD_static_malloc
 1489              		.syntax unified
 1490              		.thumb
 1491              		.thumb_func
 1493              	USBD_static_malloc:
 1494              	.LVL153:
 1495              	.LFB184:
 712:USB_Device/Target/usbd_conf.c ****   UNUSED(size);
 1496              		.loc 1 712 1 is_stmt 1 view -0
 1497              		.cfi_startproc
 1498              		@ args = 0, pretend = 0, frame = 0
 1499              		@ frame_needed = 0, uses_anonymous_args = 0
 1500              		@ link register save eliminated.
 713:USB_Device/Target/usbd_conf.c ****   static uint32_t mem[(sizeof(USBD_HID_HandleTypeDef)/4)+1];/* On 32-bit boundary */
 1501              		.loc 1 713 3 view .LVU351
 714:USB_Device/Target/usbd_conf.c ****   return mem;
 1502              		.loc 1 714 3 view .LVU352
 715:USB_Device/Target/usbd_conf.c **** }
 1503              		.loc 1 715 3 view .LVU353
 716:USB_Device/Target/usbd_conf.c **** 
 1504              		.loc 1 716 1 is_stmt 0 view .LVU354
 1505 0000 0048     		ldr	r0, .L92
 1506              	.LVL154:
 716:USB_Device/Target/usbd_conf.c **** 
 1507              		.loc 1 716 1 view .LVU355
 1508 0002 7047     		bx	lr
 1509              	.L93:
 1510              		.align	2
ARM GAS  /tmp/ccrRyNXj.s 			page 46


 1511              	.L92:
 1512 0004 00000000 		.word	mem.0
 1513              		.cfi_endproc
 1514              	.LFE184:
 1516              		.section	.text.USBD_static_free,"ax",%progbits
 1517              		.align	1
 1518              		.global	USBD_static_free
 1519              		.syntax unified
 1520              		.thumb
 1521              		.thumb_func
 1523              	USBD_static_free:
 1524              	.LVL155:
 1525              	.LFB185:
 724:USB_Device/Target/usbd_conf.c ****   UNUSED(p);
 1526              		.loc 1 724 1 is_stmt 1 view -0
 1527              		.cfi_startproc
 1528              		@ args = 0, pretend = 0, frame = 0
 1529              		@ frame_needed = 0, uses_anonymous_args = 0
 1530              		@ link register save eliminated.
 725:USB_Device/Target/usbd_conf.c **** }
 1531              		.loc 1 725 3 view .LVU357
 726:USB_Device/Target/usbd_conf.c **** 
 1532              		.loc 1 726 1 is_stmt 0 view .LVU358
 1533 0000 7047     		bx	lr
 1534              		.cfi_endproc
 1535              	.LFE185:
 1537              		.section	.bss.mem.0,"aw",%nobits
 1538              		.align	2
 1541              	mem.0:
 1542 0000 00000000 		.space	20
 1542      00000000 
 1542      00000000 
 1542      00000000 
 1542      00000000 
 1543              		.global	hpcd_USB_FS
 1544              		.section	.bss.hpcd_USB_FS,"aw",%nobits
 1545              		.align	2
 1548              	hpcd_USB_FS:
 1549 0000 00000000 		.space	816
 1549      00000000 
 1549      00000000 
 1549      00000000 
 1549      00000000 
 1550              		.text
 1551              	.Letext0:
 1552              		.file 2 "Drivers/CMSIS/Device/ST/STM32L5xx/Include/stm32l562xx.h"
 1553              		.file 3 "/home/yul/toolchain/arm-gnu-toolchain-12.2.rel1-x86_64-arm-none-eabi/arm-none-eabi/includ
 1554              		.file 4 "/home/yul/toolchain/arm-gnu-toolchain-12.2.rel1-x86_64-arm-none-eabi/arm-none-eabi/includ
 1555              		.file 5 "Drivers/CMSIS/Include/core_cm33.h"
 1556              		.file 6 "Drivers/CMSIS/Device/ST/STM32L5xx/Include/stm32l5xx.h"
 1557              		.file 7 "Drivers/STM32L5xx_HAL_Driver/Inc/stm32l5xx_hal_def.h"
 1558              		.file 8 "Drivers/STM32L5xx_HAL_Driver/Inc/stm32l5xx_hal_rcc_ex.h"
 1559              		.file 9 "Drivers/STM32L5xx_HAL_Driver/Inc/stm32l5xx_hal_gpio.h"
 1560              		.file 10 "Drivers/STM32L5xx_HAL_Driver/Inc/stm32l5xx_ll_usb.h"
 1561              		.file 11 "Drivers/STM32L5xx_HAL_Driver/Inc/stm32l5xx_hal_pcd.h"
 1562              		.file 12 "Middlewares/ST/STM32_USB_Device_Library/Core/Inc/usbd_def.h"
 1563              		.file 13 "Middlewares/ST/STM32_USB_Device_Library/Core/Inc/usbd_core.h"
ARM GAS  /tmp/ccrRyNXj.s 			page 47


 1564              		.file 14 "Drivers/STM32L5xx_HAL_Driver/Inc/stm32l5xx_hal_pcd_ex.h"
 1565              		.file 15 "Drivers/STM32L5xx_HAL_Driver/Inc/stm32l5xx_hal_pwr_ex.h"
 1566              		.file 16 "Drivers/STM32L5xx_HAL_Driver/Inc/stm32l5xx_hal.h"
 1567              		.file 17 "Drivers/STM32L5xx_HAL_Driver/Inc/stm32l5xx_hal_cortex.h"
 1568              		.file 18 "<built-in>"
ARM GAS  /tmp/ccrRyNXj.s 			page 48


DEFINED SYMBOLS
                            *ABS*:0000000000000000 usbd_conf.c
     /tmp/ccrRyNXj.s:22     .text.USBD_Get_USB_Status:0000000000000000 $t
     /tmp/ccrRyNXj.s:27     .text.USBD_Get_USB_Status:0000000000000000 USBD_Get_USB_Status
     /tmp/ccrRyNXj.s:41     .text.USBD_Get_USB_Status:0000000000000008 $d
     /tmp/ccrRyNXj.s:45     .text.USBD_Get_USB_Status:000000000000000c $t
     /tmp/ccrRyNXj.s:68     .text.PCD_ISOINIncompleteCallback:0000000000000000 $t
     /tmp/ccrRyNXj.s:73     .text.PCD_ISOINIncompleteCallback:0000000000000000 PCD_ISOINIncompleteCallback
     /tmp/ccrRyNXj.s:98     .text.PCD_ISOOUTIncompleteCallback:0000000000000000 $t
     /tmp/ccrRyNXj.s:103    .text.PCD_ISOOUTIncompleteCallback:0000000000000000 PCD_ISOOUTIncompleteCallback
     /tmp/ccrRyNXj.s:128    .text.PCD_DataInStageCallback:0000000000000000 $t
     /tmp/ccrRyNXj.s:133    .text.PCD_DataInStageCallback:0000000000000000 PCD_DataInStageCallback
     /tmp/ccrRyNXj.s:161    .text.PCD_DataOutStageCallback:0000000000000000 $t
     /tmp/ccrRyNXj.s:166    .text.PCD_DataOutStageCallback:0000000000000000 PCD_DataOutStageCallback
     /tmp/ccrRyNXj.s:194    .text.PCD_DisconnectCallback:0000000000000000 $t
     /tmp/ccrRyNXj.s:199    .text.PCD_DisconnectCallback:0000000000000000 PCD_DisconnectCallback
     /tmp/ccrRyNXj.s:224    .text.PCD_ConnectCallback:0000000000000000 $t
     /tmp/ccrRyNXj.s:229    .text.PCD_ConnectCallback:0000000000000000 PCD_ConnectCallback
     /tmp/ccrRyNXj.s:254    .text.SystemClockConfig_Resume:0000000000000000 $t
     /tmp/ccrRyNXj.s:259    .text.SystemClockConfig_Resume:0000000000000000 SystemClockConfig_Resume
     /tmp/ccrRyNXj.s:279    .text.PCD_ResumeCallback:0000000000000000 $t
     /tmp/ccrRyNXj.s:284    .text.PCD_ResumeCallback:0000000000000000 PCD_ResumeCallback
     /tmp/ccrRyNXj.s:328    .text.PCD_ResumeCallback:0000000000000024 $d
     /tmp/ccrRyNXj.s:333    .text.PCD_SuspendCallback:0000000000000000 $t
     /tmp/ccrRyNXj.s:338    .text.PCD_SuspendCallback:0000000000000000 PCD_SuspendCallback
     /tmp/ccrRyNXj.s:378    .text.PCD_SuspendCallback:000000000000001c $d
     /tmp/ccrRyNXj.s:383    .text.PCD_ResetCallback:0000000000000000 $t
     /tmp/ccrRyNXj.s:388    .text.PCD_ResetCallback:0000000000000000 PCD_ResetCallback
     /tmp/ccrRyNXj.s:434    .text.PCD_SetupStageCallback:0000000000000000 $t
     /tmp/ccrRyNXj.s:439    .text.PCD_SetupStageCallback:0000000000000000 PCD_SetupStageCallback
     /tmp/ccrRyNXj.s:465    .text.PCD_SOFCallback:0000000000000000 $t
     /tmp/ccrRyNXj.s:470    .text.PCD_SOFCallback:0000000000000000 PCD_SOFCallback
     /tmp/ccrRyNXj.s:495    .text.HAL_PCD_MspInit:0000000000000000 $t
     /tmp/ccrRyNXj.s:501    .text.HAL_PCD_MspInit:0000000000000000 HAL_PCD_MspInit
     /tmp/ccrRyNXj.s:676    .text.HAL_PCD_MspInit:00000000000000b0 $d
     /tmp/ccrRyNXj.s:683    .text.HAL_PCD_MspDeInit:0000000000000000 $t
     /tmp/ccrRyNXj.s:689    .text.HAL_PCD_MspDeInit:0000000000000000 HAL_PCD_MspDeInit
     /tmp/ccrRyNXj.s:737    .text.HAL_PCD_MspDeInit:0000000000000028 $d
     /tmp/ccrRyNXj.s:744    .text.USBD_LL_Init:0000000000000000 $t
     /tmp/ccrRyNXj.s:750    .text.USBD_LL_Init:0000000000000000 USBD_LL_Init
     /tmp/ccrRyNXj.s:910    .text.USBD_LL_Init:00000000000000d4 $d
     /tmp/ccrRyNXj.s:1548   .bss.hpcd_USB_FS:0000000000000000 hpcd_USB_FS
     /tmp/ccrRyNXj.s:927    .text.USBD_LL_DeInit:0000000000000000 $t
     /tmp/ccrRyNXj.s:933    .text.USBD_LL_DeInit:0000000000000000 USBD_LL_DeInit
     /tmp/ccrRyNXj.s:967    .text.USBD_LL_Start:0000000000000000 $t
     /tmp/ccrRyNXj.s:973    .text.USBD_LL_Start:0000000000000000 USBD_LL_Start
     /tmp/ccrRyNXj.s:1007   .text.USBD_LL_Stop:0000000000000000 $t
     /tmp/ccrRyNXj.s:1013   .text.USBD_LL_Stop:0000000000000000 USBD_LL_Stop
     /tmp/ccrRyNXj.s:1047   .text.USBD_LL_OpenEP:0000000000000000 $t
     /tmp/ccrRyNXj.s:1053   .text.USBD_LL_OpenEP:0000000000000000 USBD_LL_OpenEP
     /tmp/ccrRyNXj.s:1092   .text.USBD_LL_CloseEP:0000000000000000 $t
     /tmp/ccrRyNXj.s:1098   .text.USBD_LL_CloseEP:0000000000000000 USBD_LL_CloseEP
     /tmp/ccrRyNXj.s:1132   .text.USBD_LL_FlushEP:0000000000000000 $t
     /tmp/ccrRyNXj.s:1138   .text.USBD_LL_FlushEP:0000000000000000 USBD_LL_FlushEP
     /tmp/ccrRyNXj.s:1172   .text.USBD_LL_StallEP:0000000000000000 $t
     /tmp/ccrRyNXj.s:1178   .text.USBD_LL_StallEP:0000000000000000 USBD_LL_StallEP
     /tmp/ccrRyNXj.s:1212   .text.USBD_LL_ClearStallEP:0000000000000000 $t
ARM GAS  /tmp/ccrRyNXj.s 			page 49


     /tmp/ccrRyNXj.s:1218   .text.USBD_LL_ClearStallEP:0000000000000000 USBD_LL_ClearStallEP
     /tmp/ccrRyNXj.s:1252   .text.USBD_LL_IsStallEP:0000000000000000 $t
     /tmp/ccrRyNXj.s:1258   .text.USBD_LL_IsStallEP:0000000000000000 USBD_LL_IsStallEP
     /tmp/ccrRyNXj.s:1307   .text.USBD_LL_SetUSBAddress:0000000000000000 $t
     /tmp/ccrRyNXj.s:1313   .text.USBD_LL_SetUSBAddress:0000000000000000 USBD_LL_SetUSBAddress
     /tmp/ccrRyNXj.s:1347   .text.USBD_LL_Transmit:0000000000000000 $t
     /tmp/ccrRyNXj.s:1353   .text.USBD_LL_Transmit:0000000000000000 USBD_LL_Transmit
     /tmp/ccrRyNXj.s:1387   .text.USBD_LL_PrepareReceive:0000000000000000 $t
     /tmp/ccrRyNXj.s:1393   .text.USBD_LL_PrepareReceive:0000000000000000 USBD_LL_PrepareReceive
     /tmp/ccrRyNXj.s:1427   .text.USBD_LL_GetRxDataSize:0000000000000000 $t
     /tmp/ccrRyNXj.s:1433   .text.USBD_LL_GetRxDataSize:0000000000000000 USBD_LL_GetRxDataSize
     /tmp/ccrRyNXj.s:1459   .text.USBD_LL_Delay:0000000000000000 $t
     /tmp/ccrRyNXj.s:1465   .text.USBD_LL_Delay:0000000000000000 USBD_LL_Delay
     /tmp/ccrRyNXj.s:1487   .text.USBD_static_malloc:0000000000000000 $t
     /tmp/ccrRyNXj.s:1493   .text.USBD_static_malloc:0000000000000000 USBD_static_malloc
     /tmp/ccrRyNXj.s:1512   .text.USBD_static_malloc:0000000000000004 $d
     /tmp/ccrRyNXj.s:1541   .bss.mem.0:0000000000000000 mem.0
     /tmp/ccrRyNXj.s:1517   .text.USBD_static_free:0000000000000000 $t
     /tmp/ccrRyNXj.s:1523   .text.USBD_static_free:0000000000000000 USBD_static_free
     /tmp/ccrRyNXj.s:1538   .bss.mem.0:0000000000000000 $d
     /tmp/ccrRyNXj.s:1545   .bss.hpcd_USB_FS:0000000000000000 $d

UNDEFINED SYMBOLS
USBD_LL_IsoINIncomplete
USBD_LL_IsoOUTIncomplete
USBD_LL_DataInStage
USBD_LL_DataOutStage
USBD_LL_DevDisconnected
USBD_LL_DevConnected
SystemClock_Config
USBD_LL_Resume
USBD_LL_Suspend
USBD_LL_SetSpeed
USBD_LL_Reset
Error_Handler
USBD_LL_SetupStage
USBD_LL_SOF
memset
HAL_RCCEx_PeriphCLKConfig
HAL_GPIO_Init
HAL_NVIC_SetPriority
HAL_NVIC_EnableIRQ
HAL_GPIO_DeInit
HAL_NVIC_DisableIRQ
HAL_PWREx_EnableVddUSB
HAL_PCD_Init
HAL_PCD_RegisterCallback
HAL_PCD_RegisterDataOutStageCallback
HAL_PCD_RegisterDataInStageCallback
HAL_PCD_RegisterIsoOutIncpltCallback
HAL_PCD_RegisterIsoInIncpltCallback
HAL_PCDEx_PMAConfig
HAL_PCD_DeInit
HAL_PCD_Start
HAL_PCD_Stop
HAL_PCD_EP_Open
HAL_PCD_EP_Close
ARM GAS  /tmp/ccrRyNXj.s 			page 50


HAL_PCD_EP_Flush
HAL_PCD_EP_SetStall
HAL_PCD_EP_ClrStall
HAL_PCD_SetAddress
HAL_PCD_EP_Transmit
HAL_PCD_EP_Receive
HAL_PCD_EP_GetRxCount
HAL_Delay
